Export(0, ??$_Getvals@_W@?$time_get@DV?$istreambuf_iterator@DU?$char_traits@D@std@@@std@@@std@@IEAAX_WAEBV_Locinfo@1@@Z) Export(1, ??$_Getvals@_W@?$time_get@GV?$istreambuf_iterator@GU?$char_traits@G@std@@@std@@@std@@IEAAX_WAEBV_Locinfo@1@@Z) Export(2, ??$_Getvals@_W@?$time_get@_WV?$istreambuf_iterator@_WU?$char_traits@_W@std@@@std@@@std@@IEAAX_WAEBV_Locinfo@1@@Z) Export(3, ??0?$_Yarn@D@std@@QEAA@AEBV01@@Z) Export(4, ??0?$_Yarn@D@std@@QEAA@PEBD@Z) Export(5, ??0?$_Yarn@D@std@@QEAA@XZ) Export(6, ??0?$_Yarn@G@std@@QEAA@AEBV01@@Z) Export(7, ??0?$_Yarn@G@std@@QEAA@PEBG@Z) Export(8, ??0?$_Yarn@G@std@@QEAA@XZ) Export(9, ??0?$_Yarn@_W@std@@QEAA@AEBV01@@Z) Export(10, ??0?$_Yarn@_W@std@@QEAA@PEB_W@Z) Export(11, ??0?$_Yarn@_W@std@@QEAA@XZ) Export(12, ??0?$basic_ios@DU?$char_traits@D@std@@@std@@IEAA@XZ) Export(13, ??0?$basic_ios@DU?$char_traits@D@std@@@std@@QEAA@PEAV?$basic_streambuf@DU?$char_traits@D@std@@@1@@Z) Export(14, ??0?$basic_ios@GU?$char_traits@G@std@@@std@@IEAA@XZ) Export(15, ??0?$basic_ios@GU?$char_traits@G@std@@@std@@QEAA@PEAV?$basic_streambuf@GU?$char_traits@G@std@@@1@@Z) Export(16, ??0?$basic_ios@_WU?$char_traits@_W@std@@@std@@IEAA@XZ) Export(17, ??0?$basic_ios@_WU?$char_traits@_W@std@@@std@@QEAA@PEAV?$basic_streambuf@_WU?$char_traits@_W@std@@@1@@Z) Export(18, ??0?$basic_iostream@DU?$char_traits@D@std@@@std@@IEAA@$$QEAV01@@Z) Export(19, ??0?$basic_iostream@DU?$char_traits@D@std@@@std@@QEAA@PEAV?$basic_streambuf@DU?$char_traits@D@std@@@1@@Z) Export(20, ??0?$basic_iostream@GU?$char_traits@G@std@@@std@@IEAA@$$QEAV01@@Z) Export(21, ??0?$basic_iostream@GU?$char_traits@G@std@@@std@@QEAA@PEAV?$basic_streambuf@GU?$char_traits@G@std@@@1@@Z) Export(22, ??0?$basic_iostream@_WU?$char_traits@_W@std@@@std@@IEAA@$$QEAV01@@Z) Export(23, ??0?$basic_iostream@_WU?$char_traits@_W@std@@@std@@QEAA@PEAV?$basic_streambuf@_WU?$char_traits@_W@std@@@1@@Z) Export(24, ??0?$basic_istream@DU?$char_traits@D@std@@@std@@IEAA@$$QEAV01@@Z) Export(25, ??0?$basic_istream@DU?$char_traits@D@std@@@std@@QEAA@PEAV?$basic_streambuf@DU?$char_traits@D@std@@@1@_N1@Z) Export(26, ??0?$basic_istream@DU?$char_traits@D@std@@@std@@QEAA@PEAV?$basic_streambuf@DU?$char_traits@D@std@@@1@_N@Z) Export(27, ??0?$basic_istream@DU?$char_traits@D@std@@@std@@QEAA@W4_Uninitialized@1@@Z) Export(28, ??0?$basic_istream@GU?$char_traits@G@std@@@std@@IEAA@$$QEAV01@@Z) Export(29, ??0?$basic_istream@GU?$char_traits@G@std@@@std@@QEAA@PEAV?$basic_streambuf@GU?$char_traits@G@std@@@1@_N1@Z) Export(30, ??0?$basic_istream@GU?$char_traits@G@std@@@std@@QEAA@PEAV?$basic_streambuf@GU?$char_traits@G@std@@@1@_N@Z) Export(31, ??0?$basic_istream@GU?$char_traits@G@std@@@std@@QEAA@W4_Uninitialized@1@@Z) Export(32, ??0?$basic_istream@_WU?$char_traits@_W@std@@@std@@IEAA@$$QEAV01@@Z) Export(33, ??0?$basic_istream@_WU?$char_traits@_W@std@@@std@@QEAA@PEAV?$basic_streambuf@_WU?$char_traits@_W@std@@@1@_N1@Z) Export(34, ??0?$basic_istream@_WU?$char_traits@_W@std@@@std@@QEAA@PEAV?$basic_streambuf@_WU?$char_traits@_W@std@@@1@_N@Z) Export(35, ??0?$basic_istream@_WU?$char_traits@_W@std@@@std@@QEAA@W4_Uninitialized@1@@Z) Export(36, ??0?$basic_ostream@DU?$char_traits@D@std@@@std@@IEAA@$$QEAV01@@Z) Export(37, ??0?$basic_ostream@DU?$char_traits@D@std@@@std@@QEAA@PEAV?$basic_streambuf@DU?$char_traits@D@std@@@1@_N@Z) Export(38, ??0?$basic_ostream@DU?$char_traits@D@std@@@std@@QEAA@W4_Uninitialized@1@_N@Z) Export(39, ??0?$basic_ostream@GU?$char_traits@G@std@@@std@@IEAA@$$QEAV01@@Z) Export(40, ??0?$basic_ostream@GU?$char_traits@G@std@@@std@@QEAA@PEAV?$basic_streambuf@GU?$char_traits@G@std@@@1@_N@Z) Export(41, ??0?$basic_ostream@GU?$char_traits@G@std@@@std@@QEAA@W4_Uninitialized@1@_N@Z) Export(42, ??0?$basic_ostream@_WU?$char_traits@_W@std@@@std@@IEAA@$$QEAV01@@Z) Export(43, ??0?$basic_ostream@_WU?$char_traits@_W@std@@@std@@QEAA@PEAV?$basic_streambuf@_WU?$char_traits@_W@std@@@1@_N@Z) Export(44, ??0?$basic_ostream@_WU?$char_traits@_W@std@@@std@@QEAA@W4_Uninitialized@1@_N@Z) Export(45, ??0?$basic_streambuf@DU?$char_traits@D@std@@@std@@IEAA@AEBV01@@Z) Export(46, ??0?$basic_streambuf@DU?$char_traits@D@std@@@std@@IEAA@W4_Uninitialized@1@@Z) Export(47, ??0?$basic_streambuf@DU?$char_traits@D@std@@@std@@IEAA@XZ) Export(48, ??0?$basic_streambuf@GU?$char_traits@G@std@@@std@@IEAA@AEBV01@@Z) Export(49, ??0?$basic_streambuf@GU?$char_traits@G@std@@@std@@IEAA@W4_Uninitialized@1@@Z) 
Export(50, ??0?$basic_streambuf@GU?$char_traits@G@std@@@std@@IEAA@XZ) Export(51, ??0?$basic_streambuf@_WU?$char_traits@_W@std@@@std@@IEAA@AEBV01@@Z) Export(52, ??0?$basic_streambuf@_WU?$char_traits@_W@std@@@std@@IEAA@W4_Uninitialized@1@@Z) Export(53, ??0?$basic_streambuf@_WU?$char_traits@_W@std@@@std@@IEAA@XZ) Export(54, ??0?$codecvt@DDU_Mbstatet@@@std@@QEAA@AEBV_Locinfo@1@_K@Z) Export(55, ??0?$codecvt@DDU_Mbstatet@@@std@@QEAA@_K@Z) Export(56, ??0?$codecvt@GDU_Mbstatet@@@std@@QEAA@AEBV_Locinfo@1@_K@Z) Export(57, ??0?$codecvt@GDU_Mbstatet@@@std@@QEAA@_K@Z) Export(58, ??0?$codecvt@_SDU_Mbstatet@@@std@@QEAA@AEBV_Locinfo@1@KW4_Codecvt_mode@1@_K@Z) Export(59, ??0?$codecvt@_SDU_Mbstatet@@@std@@QEAA@AEBV_Locinfo@1@_K@Z) Export(60, ??0?$codecvt@_SDU_Mbstatet@@@std@@QEAA@_K@Z) Export(61, ??0?$codecvt@_UDU_Mbstatet@@@std@@QEAA@AEBV_Locinfo@1@KW4_Codecvt_mode@1@_K@Z) Export(62, ??0?$codecvt@_UDU_Mbstatet@@@std@@QEAA@AEBV_Locinfo@1@_K@Z) Export(63, ??0?$codecvt@_UDU_Mbstatet@@@std@@QEAA@_K@Z) Export(64, ??0?$codecvt@_WDU_Mbstatet@@@std@@QEAA@AEBV_Locinfo@1@_K@Z) Export(65, ??0?$codecvt@_WDU_Mbstatet@@@std@@QEAA@_K@Z) Export(66, ??0?$ctype@D@std@@QEAA@AEBV_Locinfo@1@_K@Z) Export(67, ??0?$ctype@D@std@@QEAA@PEBF_N_K@Z) Export(68, ??0?$ctype@G@std@@QEAA@AEBV_Locinfo@1@_K@Z) Export(69, ??0?$ctype@G@std@@QEAA@_K@Z) Export(70, ??0?$ctype@_W@std@@QEAA@AEBV_Locinfo@1@_K@Z) Export(71, ??0?$ctype@_W@std@@QEAA@_K@Z) Export(72, ??0?$num_get@DV?$istreambuf_iterator@DU?$char_traits@D@std@@@std@@@std@@QEAA@AEBV_Locinfo@1@_K@Z) Export(73, ??0?$num_get@DV?$istreambuf_iterator@DU?$char_traits@D@std@@@std@@@std@@QEAA@_K@Z) Export(74, ??0?$num_get@GV?$istreambuf_iterator@GU?$char_traits@G@std@@@std@@@std@@QEAA@AEBV_Locinfo@1@_K@Z) Export(75, ??0?$num_get@GV?$istreambuf_iterator@GU?$char_traits@G@std@@@std@@@std@@QEAA@_K@Z) Export(76, ??0?$num_get@_WV?$istreambuf_iterator@_WU?$char_traits@_W@std@@@std@@@std@@QEAA@AEBV_Locinfo@1@_K@Z) Export(77, ??0?$num_get@_WV?$istreambuf_iterator@_WU?$char_traits@_W@std@@@std@@@std@@QEAA@_K@Z) Export(78, ??0?$num_put@DV?$ostreambuf_iterator@DU?$char_traits@D@std@@@std@@@std@@QEAA@AEBV_Locinfo@1@_K@Z) Export(79, ??0?$num_put@DV?$ostreambuf_iterator@DU?$char_traits@D@std@@@std@@@std@@QEAA@_K@Z) Export(80, ??0?$num_put@GV?$ostreambuf_iterator@GU?$char_traits@G@std@@@std@@@std@@QEAA@AEBV_Locinfo@1@_K@Z) Export(81, ??0?$num_put@GV?$ostreambuf_iterator@GU?$char_traits@G@std@@@std@@@std@@QEAA@_K@Z) Export(82, ??0?$num_put@_WV?$ostreambuf_iterator@_WU?$char_traits@_W@std@@@std@@@std@@QEAA@AEBV_Locinfo@1@_K@Z) Export(83, ??0?$num_put@_WV?$ostreambuf_iterator@_WU?$char_traits@_W@std@@@std@@@std@@QEAA@_K@Z) Export(84, ??0?$time_get@DV?$istreambuf_iterator@DU?$char_traits@D@std@@@std@@@std@@IEAA@PEBD_K@Z) Export(85, ??0?$time_get@DV?$istreambuf_iterator@DU?$char_traits@D@std@@@std@@@std@@QEAA@AEBV_Locinfo@1@_K@Z) Export(86, ??0?$time_get@DV?$istreambuf_iterator@DU?$char_traits@D@std@@@std@@@std@@QEAA@_K@Z) Export(87, ??0?$time_get@GV?$istreambuf_iterator@GU?$char_traits@G@std@@@std@@@std@@IEAA@PEBD_K@Z) Export(88, ??0?$time_get@GV?$istreambuf_iterator@GU?$char_traits@G@std@@@std@@@std@@QEAA@AEBV_Locinfo@1@_K@Z) Export(89, ??0?$time_get@GV?$istreambuf_iterator@GU?$char_traits@G@std@@@std@@@std@@QEAA@_K@Z) Export(90, ??0?$time_get@_WV?$istreambuf_iterator@_WU?$char_traits@_W@std@@@std@@@std@@IEAA@PEBD_K@Z) Export(91, ??0?$time_get@_WV?$istreambuf_iterator@_WU?$char_traits@_W@std@@@std@@@std@@QEAA@AEBV_Locinfo@1@_K@Z) Export(92, ??0?$time_get@_WV?$istreambuf_iterator@_WU?$char_traits@_W@std@@@std@@@std@@QEAA@_K@Z) Export(93, ??0?$time_put@DV?$ostreambuf_iterator@DU?$char_traits@D@std@@@std@@@std@@QEAA@AEBV_Locinfo@1@_K@Z) Export(94, ??0?$time_put@DV?$ostreambuf_iterator@DU?$char_traits@D@std@@@std@@@std@@QEAA@_K@Z) Export(95, ??0?$time_put@GV?$ostreambuf_iterator@GU?$char_traits@G@std@@@std@@@std@@IEAA@PEBD_K@Z) Export(96, ??0?$time_put@GV?$ostreambuf_iterator@GU?$char_traits@G@std@@@std@@@std@@QEAA@AEBV_Locinfo@1@_K@Z) Export(97, ??0?$time_put@GV?$ostreambuf_iterator@GU?$char_traits@G@std@@@std@@@std@@QEAA@_K@Z) Export(98, ??0?$time_put@_WV?$ostreambuf_iterator@_WU?$char_traits@_W@std@@@std@@@std@@IEAA@PEBD_K@Z) Export(99, ??0?$time_put@_WV?$ostreambuf_iterator@_WU?$char_traits@_W@std@@@std@@@std@@QEAA@AEBV_Locinfo@1@_K@Z) 
Export(100, ??0?$time_put@_WV?$ostreambuf_iterator@_WU?$char_traits@_W@std@@@std@@@std@@QEAA@_K@Z) Export(101, ??0Init@ios_base@std@@QEAA@XZ) Export(102, ??0_Facet_base@std@@QEAA@AEBV01@@Z) Export(103, ??0_Facet_base@std@@QEAA@XZ) Export(104, ??0_Init_locks@std@@QEAA@XZ) Export(105, ??0_Locimp@locale@std@@AEAA@AEBV012@@Z) Export(106, ??0_Locimp@locale@std@@AEAA@_N@Z) Export(107, ??0_Locinfo@std@@QEAA@HPEBD@Z) Export(108, ??0_Locinfo@std@@QEAA@PEBD@Z) Export(109, ??0_Lockit@std@@QEAA@H@Z) Export(110, ??0_Lockit@std@@QEAA@XZ) Export(111, ??0_Timevec@std@@QEAA@AEBV01@@Z) Export(112, ??0_Timevec@std@@QEAA@PEAX@Z) Export(113, ??0_UShinit@std@@QEAA@XZ) Export(114, ??0_Winit@std@@QEAA@XZ) Export(115, ??0codecvt_base@std@@QEAA@_K@Z) Export(116, ??0ctype_base@std@@QEAA@_K@Z) Export(117, ??0facet@locale@std@@IEAA@_K@Z) Export(118, ??0id@locale@std@@QEAA@_K@Z) Export(119, ??0ios_base@std@@IEAA@XZ) Export(120, ??0task_continuation_context@Concurrency@@AEAA@XZ) Export(121, ??0time_base@std@@QEAA@_K@Z) Export(122, ??1?$_Yarn@D@std@@QEAA@XZ) Export(123, ??1?$_Yarn@G@std@@QEAA@XZ) Export(124, ??1?$_Yarn@_W@std@@QEAA@XZ) Export(125, ??1?$basic_ios@DU?$char_traits@D@std@@@std@@UEAA@XZ) Export(126, ??1?$basic_ios@GU?$char_traits@G@std@@@std@@UEAA@XZ) Export(127, ??1?$basic_ios@_WU?$char_traits@_W@std@@@std@@UEAA@XZ) Export(128, ??1?$basic_iostream@DU?$char_traits@D@std@@@std@@UEAA@XZ) Export(129, ??1?$basic_iostream@GU?$char_traits@G@std@@@std@@UEAA@XZ) Export(130, ??1?$basic_iostream@_WU?$char_traits@_W@std@@@std@@UEAA@XZ) Export(131, ??1?$basic_istream@DU?$char_traits@D@std@@@std@@UEAA@XZ) Export(132, ??1?$basic_istream@GU?$char_traits@G@std@@@std@@UEAA@XZ) Export(133, ??1?$basic_istream@_WU?$char_traits@_W@std@@@std@@UEAA@XZ) Export(134, ??1?$basic_ostream@DU?$char_traits@D@std@@@std@@UEAA@XZ) Export(135, ??1?$basic_ostream@GU?$char_traits@G@std@@@std@@UEAA@XZ) Export(136, ??1?$basic_ostream@_WU?$char_traits@_W@std@@@std@@UEAA@XZ) Export(137, ??1?$basic_streambuf@DU?$char_traits@D@std@@@std@@UEAA@XZ) Export(138, ??1?$basic_streambuf@GU?$char_traits@G@std@@@std@@UEAA@XZ) Export(139, ??1?$basic_streambuf@_WU?$char_traits@_W@std@@@std@@UEAA@XZ) Export(140, ??1?$codecvt@DDU_Mbstatet@@@std@@MEAA@XZ) Export(141, ??1?$codecvt@GDU_Mbstatet@@@std@@MEAA@XZ) Export(142, ??1?$codecvt@_SDU_Mbstatet@@@std@@MEAA@XZ) Export(143, ??1?$codecvt@_UDU_Mbstatet@@@std@@MEAA@XZ) Export(144, ??1?$codecvt@_WDU_Mbstatet@@@std@@MEAA@XZ) Export(145, ??1?$ctype@D@std@@MEAA@XZ) Export(146, ??1?$ctype@G@std@@MEAA@XZ) Export(147, ??1?$ctype@_W@std@@MEAA@XZ) Export(148, ??1?$num_get@DV?$istreambuf_iterator@DU?$char_traits@D@std@@@std@@@std@@MEAA@XZ) Export(149, ??1?$num_get@GV?$istreambuf_iterator@GU?$char_traits@G@std@@@std@@@std@@MEAA@XZ) 
Export(150, ??1?$num_get@_WV?$istreambuf_iterator@_WU?$char_traits@_W@std@@@std@@@std@@MEAA@XZ) Export(151, ??1?$num_put@DV?$ostreambuf_iterator@DU?$char_traits@D@std@@@std@@@std@@MEAA@XZ) Export(152, ??1?$num_put@GV?$ostreambuf_iterator@GU?$char_traits@G@std@@@std@@@std@@MEAA@XZ) Export(153, ??1?$num_put@_WV?$ostreambuf_iterator@_WU?$char_traits@_W@std@@@std@@@std@@MEAA@XZ) Export(154, ??1?$time_get@DV?$istreambuf_iterator@DU?$char_traits@D@std@@@std@@@std@@MEAA@XZ) Export(155, ??1?$time_get@GV?$istreambuf_iterator@GU?$char_traits@G@std@@@std@@@std@@MEAA@XZ) Export(156, ??1?$time_get@_WV?$istreambuf_iterator@_WU?$char_traits@_W@std@@@std@@@std@@MEAA@XZ) Export(157, ??1?$time_put@DV?$ostreambuf_iterator@DU?$char_traits@D@std@@@std@@@std@@MEAA@XZ) Export(158, ??1?$time_put@GV?$ostreambuf_iterator@GU?$char_traits@G@std@@@std@@@std@@MEAA@XZ) Export(159, ??1?$time_put@_WV?$ostreambuf_iterator@_WU?$char_traits@_W@std@@@std@@@std@@MEAA@XZ) Export(160, ??1Init@ios_base@std@@QEAA@XZ) Export(161, ??1_Facet_base@std@@UEAA@XZ) Export(162, ??1_Init_locks@std@@QEAA@XZ) Export(163, ??1_Locimp@locale@std@@MEAA@XZ) Export(164, ??1_Locinfo@std@@QEAA@XZ) Export(165, ??1_Lockit@std@@QEAA@XZ) Export(166, ??1_Timevec@std@@QEAA@XZ) Export(167, ??1_UShinit@std@@QEAA@XZ) Export(168, ??1_Winit@std@@QEAA@XZ) Export(169, ??1codecvt_base@std@@UEAA@XZ) Export(170, ??1ctype_base@std@@UEAA@XZ) Export(171, ??1facet@locale@std@@MEAA@XZ) Export(172, ??1ios_base@std@@UEAA@XZ) Export(173, ??1time_base@std@@UEAA@XZ) Export(174, ??4?$_Iosb@H@std@@QEAAAEAV01@$$QEAV01@@Z) Export(175, ??4?$_Iosb@H@std@@QEAAAEAV01@AEBV01@@Z) Export(176, ??4?$_Yarn@D@std@@QEAAAEAV01@AEBV01@@Z) Export(177, ??4?$_Yarn@D@std@@QEAAAEAV01@PEBD@Z) Export(178, ??4?$_Yarn@G@std@@QEAAAEAV01@AEBV01@@Z) Export(179, ??4?$_Yarn@G@std@@QEAAAEAV01@PEBG@Z) Export(180, ??4?$_Yarn@_W@std@@QEAAAEAV01@AEBV01@@Z) Export(181, ??4?$_Yarn@_W@std@@QEAAAEAV01@PEB_W@Z) Export(182, ??4?$basic_iostream@DU?$char_traits@D@std@@@std@@IEAAAEAV01@$$QEAV01@@Z) Export(183, ??4?$basic_iostream@GU?$char_traits@G@std@@@std@@IEAAAEAV01@$$QEAV01@@Z) Export(184, ??4?$basic_iostream@_WU?$char_traits@_W@std@@@std@@IEAAAEAV01@$$QEAV01@@Z) Export(185, ??4?$basic_istream@DU?$char_traits@D@std@@@std@@IEAAAEAV01@$$QEAV01@@Z) Export(186, ??4?$basic_istream@GU?$char_traits@G@std@@@std@@IEAAAEAV01@$$QEAV01@@Z) Export(187, ??4?$basic_istream@_WU?$char_traits@_W@std@@@std@@IEAAAEAV01@$$QEAV01@@Z) Export(188, ??4?$basic_ostream@DU?$char_traits@D@std@@@std@@IEAAAEAV01@$$QEAV01@@Z) Export(189, ??4?$basic_ostream@GU?$char_traits@G@std@@@std@@IEAAAEAV01@$$QEAV01@@Z) Export(190, ??4?$basic_ostream@_WU?$char_traits@_W@std@@@std@@IEAAAEAV01@$$QEAV01@@Z) Export(191, ??4?$basic_streambuf@DU?$char_traits@D@std@@@std@@IEAAAEAV01@AEBV01@@Z) Export(192, ??4?$basic_streambuf@GU?$char_traits@G@std@@@std@@IEAAAEAV01@AEBV01@@Z) Export(193, ??4?$basic_streambuf@_WU?$char_traits@_W@std@@@std@@IEAAAEAV01@AEBV01@@Z) Export(194, ??4Init@ios_base@std@@QEAAAEAV012@AEBV012@@Z) Export(195, ??4_Crt_new_delete@std@@QEAAAEAU01@$$QEAU01@@Z) Export(196, ??4_Crt_new_delete@std@@QEAAAEAU01@AEBU01@@Z) Export(197, ??4_Facet_base@std@@QEAAAEAV01@AEBV01@@Z) Export(198, ??4_Init_locks@std@@QEAAAEAV01@AEBV01@@Z) Export(199, ??4_Timevec@std@@QEAAAEAV01@AEBV01@@Z) 
Export(200, ??4_UShinit@std@@QEAAAEAV01@AEBV01@@Z) Export(201, ??4_Winit@std@@QEAAAEAV01@AEBV01@@Z) Export(202, ??5?$basic_istream@DU?$char_traits@D@std@@@std@@QEAAAEAV01@AEAF@Z) Export(203, ??5?$basic_istream@DU?$char_traits@D@std@@@std@@QEAAAEAV01@AEAG@Z) Export(204, ??5?$basic_istream@DU?$char_traits@D@std@@@std@@QEAAAEAV01@AEAH@Z) Export(205, ??5?$basic_istream@DU?$char_traits@D@std@@@std@@QEAAAEAV01@AEAI@Z) Export(206, ??5?$basic_istream@DU?$char_traits@D@std@@@std@@QEAAAEAV01@AEAJ@Z) Export(207, ??5?$basic_istream@DU?$char_traits@D@std@@@std@@QEAAAEAV01@AEAK@Z) Export(208, ??5?$basic_istream@DU?$char_traits@D@std@@@std@@QEAAAEAV01@AEAM@Z) Export(209, ??5?$basic_istream@DU?$char_traits@D@std@@@std@@QEAAAEAV01@AEAN@Z) Export(210, ??5?$basic_istream@DU?$char_traits@D@std@@@std@@QEAAAEAV01@AEAO@Z) Export(211, ??5?$basic_istream@DU?$char_traits@D@std@@@std@@QEAAAEAV01@AEAPEAX@Z) Export(212, ??5?$basic_istream@DU?$char_traits@D@std@@@std@@QEAAAEAV01@AEA_J@Z) Export(213, ??5?$basic_istream@DU?$char_traits@D@std@@@std@@QEAAAEAV01@AEA_K@Z) Export(214, ??5?$basic_istream@DU?$char_traits@D@std@@@std@@QEAAAEAV01@AEA_N@Z) Export(215, ??5?$basic_istream@DU?$char_traits@D@std@@@std@@QEAAAEAV01@P6AAEAV01@AEAV01@@Z@Z) Export(216, ??5?$basic_istream@DU?$char_traits@D@std@@@std@@QEAAAEAV01@P6AAEAV?$basic_ios@DU?$char_traits@D@std@@@1@AEAV21@@Z@Z) Export(217, ??5?$basic_istream@DU?$char_traits@D@std@@@std@@QEAAAEAV01@P6AAEAVios_base@1@AEAV21@@Z@Z) Export(218, ??5?$basic_istream@DU?$char_traits@D@std@@@std@@QEAAAEAV01@PEAV?$basic_streambuf@DU?$char_traits@D@std@@@1@@Z) Export(219, ??5?$basic_istream@GU?$char_traits@G@std@@@std@@QEAAAEAV01@AEAF@Z) Export(220, ??5?$basic_istream@GU?$char_traits@G@std@@@std@@QEAAAEAV01@AEAG@Z) Export(221, ??5?$basic_istream@GU?$char_traits@G@std@@@std@@QEAAAEAV01@AEAH@Z) Export(222, ??5?$basic_istream@GU?$char_traits@G@std@@@std@@QEAAAEAV01@AEAI@Z) Export(223, ??5?$basic_istream@GU?$char_traits@G@std@@@std@@QEAAAEAV01@AEAJ@Z) Export(224, ??5?$basic_istream@GU?$char_traits@G@std@@@std@@QEAAAEAV01@AEAK@Z) Export(225, ??5?$basic_istream@GU?$char_traits@G@std@@@std@@QEAAAEAV01@AEAM@Z) Export(226, ??5?$basic_istream@GU?$char_traits@G@std@@@std@@QEAAAEAV01@AEAN@Z) Export(227, ??5?$basic_istream@GU?$char_traits@G@std@@@std@@QEAAAEAV01@AEAO@Z) Export(228, ??5?$basic_istream@GU?$char_traits@G@std@@@std@@QEAAAEAV01@AEAPEAX@Z) Export(229, ??5?$basic_istream@GU?$char_traits@G@std@@@std@@QEAAAEAV01@AEA_J@Z) Export(230, ??5?$basic_istream@GU?$char_traits@G@std@@@std@@QEAAAEAV01@AEA_K@Z) Export(231, ??5?$basic_istream@GU?$char_traits@G@std@@@std@@QEAAAEAV01@AEA_N@Z) Export(232, ??5?$basic_istream@GU?$char_traits@G@std@@@std@@QEAAAEAV01@P6AAEAV01@AEAV01@@Z@Z) Export(233, ??5?$basic_istream@GU?$char_traits@G@std@@@std@@QEAAAEAV01@P6AAEAV?$basic_ios@GU?$char_traits@G@std@@@1@AEAV21@@Z@Z) Export(234, ??5?$basic_istream@GU?$char_traits@G@std@@@std@@QEAAAEAV01@P6AAEAVios_base@1@AEAV21@@Z@Z) Export(235, ??5?$basic_istream@GU?$char_traits@G@std@@@std@@QEAAAEAV01@PEAV?$basic_streambuf@GU?$char_traits@G@std@@@1@@Z) Export(236, ??5?$basic_istream@_WU?$char_traits@_W@std@@@std@@QEAAAEAV01@AEAF@Z) Export(237, ??5?$basic_istream@_WU?$char_traits@_W@std@@@std@@QEAAAEAV01@AEAG@Z) Export(238, ??5?$basic_istream@_WU?$char_traits@_W@std@@@std@@QEAAAEAV01@AEAH@Z) Export(239, ??5?$basic_istream@_WU?$char_traits@_W@std@@@std@@QEAAAEAV01@AEAI@Z) Export(240, ??5?$basic_istream@_WU?$char_traits@_W@std@@@std@@QEAAAEAV01@AEAJ@Z) Export(241, ??5?$basic_istream@_WU?$char_traits@_W@std@@@std@@QEAAAEAV01@AEAK@Z) Export(242, ??5?$basic_istream@_WU?$char_traits@_W@std@@@std@@QEAAAEAV01@AEAM@Z) Export(243, ??5?$basic_istream@_WU?$char_traits@_W@std@@@std@@QEAAAEAV01@AEAN@Z) Export(244, ??5?$basic_istream@_WU?$char_traits@_W@std@@@std@@QEAAAEAV01@AEAO@Z) Export(245, ??5?$basic_istream@_WU?$char_traits@_W@std@@@std@@QEAAAEAV01@AEAPEAX@Z) Export(246, ??5?$basic_istream@_WU?$char_traits@_W@std@@@std@@QEAAAEAV01@AEA_J@Z) Export(247, ??5?$basic_istream@_WU?$char_traits@_W@std@@@std@@QEAAAEAV01@AEA_K@Z) Export(248, ??5?$basic_istream@_WU?$char_traits@_W@std@@@std@@QEAAAEAV01@AEA_N@Z) Export(249, ??5?$basic_istream@_WU?$char_traits@_W@std@@@std@@QEAAAEAV01@P6AAEAV01@AEAV01@@Z@Z) 
Export(250, ??5?$basic_istream@_WU?$char_traits@_W@std@@@std@@QEAAAEAV01@P6AAEAV?$basic_ios@_WU?$char_traits@_W@std@@@1@AEAV21@@Z@Z) Export(251, ??5?$basic_istream@_WU?$char_traits@_W@std@@@std@@QEAAAEAV01@P6AAEAVios_base@1@AEAV21@@Z@Z) Export(252, ??5?$basic_istream@_WU?$char_traits@_W@std@@@std@@QEAAAEAV01@PEAV?$basic_streambuf@_WU?$char_traits@_W@std@@@1@@Z) Export(253, ??6?$basic_ostream@DU?$char_traits@D@std@@@std@@QEAAAEAV01@F@Z) Export(254, ??6?$basic_ostream@DU?$char_traits@D@std@@@std@@QEAAAEAV01@G@Z) Export(255, ??6?$basic_ostream@DU?$char_traits@D@std@@@std@@QEAAAEAV01@H@Z) Export(256, ??6?$basic_ostream@DU?$char_traits@D@std@@@std@@QEAAAEAV01@I@Z) Export(257, ??6?$basic_ostream@DU?$char_traits@D@std@@@std@@QEAAAEAV01@J@Z) Export(258, ??6?$basic_ostream@DU?$char_traits@D@std@@@std@@QEAAAEAV01@K@Z) Export(259, ??6?$basic_ostream@DU?$char_traits@D@std@@@std@@QEAAAEAV01@M@Z) Export(260, ??6?$basic_ostream@DU?$char_traits@D@std@@@std@@QEAAAEAV01@N@Z) Export(261, ??6?$basic_ostream@DU?$char_traits@D@std@@@std@@QEAAAEAV01@O@Z) Export(262, ??6?$basic_ostream@DU?$char_traits@D@std@@@std@@QEAAAEAV01@P6AAEAV01@AEAV01@@Z@Z) Export(263, ??6?$basic_ostream@DU?$char_traits@D@std@@@std@@QEAAAEAV01@P6AAEAV?$basic_ios@DU?$char_traits@D@std@@@1@AEAV21@@Z@Z) Export(264, ??6?$basic_ostream@DU?$char_traits@D@std@@@std@@QEAAAEAV01@P6AAEAVios_base@1@AEAV21@@Z@Z) Export(265, ??6?$basic_ostream@DU?$char_traits@D@std@@@std@@QEAAAEAV01@PEAV?$basic_streambuf@DU?$char_traits@D@std@@@1@@Z) Export(266, ??6?$basic_ostream@DU?$char_traits@D@std@@@std@@QEAAAEAV01@PEBX@Z) Export(267, ??6?$basic_ostream@DU?$char_traits@D@std@@@std@@QEAAAEAV01@_J@Z) Export(268, ??6?$basic_ostream@DU?$char_traits@D@std@@@std@@QEAAAEAV01@_K@Z) Export(269, ??6?$basic_ostream@DU?$char_traits@D@std@@@std@@QEAAAEAV01@_N@Z) Export(270, ??6?$basic_ostream@GU?$char_traits@G@std@@@std@@QEAAAEAV01@F@Z) Export(271, ??6?$basic_ostream@GU?$char_traits@G@std@@@std@@QEAAAEAV01@G@Z) Export(272, ??6?$basic_ostream@GU?$char_traits@G@std@@@std@@QEAAAEAV01@H@Z) Export(273, ??6?$basic_ostream@GU?$char_traits@G@std@@@std@@QEAAAEAV01@I@Z) Export(274, ??6?$basic_ostream@GU?$char_traits@G@std@@@std@@QEAAAEAV01@J@Z) Export(275, ??6?$basic_ostream@GU?$char_traits@G@std@@@std@@QEAAAEAV01@K@Z) Export(276, ??6?$basic_ostream@GU?$char_traits@G@std@@@std@@QEAAAEAV01@M@Z) Export(277, ??6?$basic_ostream@GU?$char_traits@G@std@@@std@@QEAAAEAV01@N@Z) Export(278, ??6?$basic_ostream@GU?$char_traits@G@std@@@std@@QEAAAEAV01@O@Z) Export(279, ??6?$basic_ostream@GU?$char_traits@G@std@@@std@@QEAAAEAV01@P6AAEAV01@AEAV01@@Z@Z) Export(280, ??6?$basic_ostream@GU?$char_traits@G@std@@@std@@QEAAAEAV01@P6AAEAV?$basic_ios@GU?$char_traits@G@std@@@1@AEAV21@@Z@Z) Export(281, ??6?$basic_ostream@GU?$char_traits@G@std@@@std@@QEAAAEAV01@P6AAEAVios_base@1@AEAV21@@Z@Z) Export(282, ??6?$basic_ostream@GU?$char_traits@G@std@@@std@@QEAAAEAV01@PEAV?$basic_streambuf@GU?$char_traits@G@std@@@1@@Z) Export(283, ??6?$basic_ostream@GU?$char_traits@G@std@@@std@@QEAAAEAV01@PEBX@Z) Export(284, ??6?$basic_ostream@GU?$char_traits@G@std@@@std@@QEAAAEAV01@_J@Z) Export(285, ??6?$basic_ostream@GU?$char_traits@G@std@@@std@@QEAAAEAV01@_K@Z) Export(286, ??6?$basic_ostream@GU?$char_traits@G@std@@@std@@QEAAAEAV01@_N@Z) Export(287, ??6?$basic_ostream@_WU?$char_traits@_W@std@@@std@@QEAAAEAV01@F@Z) Export(288, ??6?$basic_ostream@_WU?$char_traits@_W@std@@@std@@QEAAAEAV01@G@Z) Export(289, ??6?$basic_ostream@_WU?$char_traits@_W@std@@@std@@QEAAAEAV01@H@Z) Export(290, ??6?$basic_ostream@_WU?$char_traits@_W@std@@@std@@QEAAAEAV01@I@Z) Export(291, ??6?$basic_ostream@_WU?$char_traits@_W@std@@@std@@QEAAAEAV01@J@Z) Export(292, ??6?$basic_ostream@_WU?$char_traits@_W@std@@@std@@QEAAAEAV01@K@Z) Export(293, ??6?$basic_ostream@_WU?$char_traits@_W@std@@@std@@QEAAAEAV01@M@Z) Export(294, ??6?$basic_ostream@_WU?$char_traits@_W@std@@@std@@QEAAAEAV01@N@Z) Export(295, ??6?$basic_ostream@_WU?$char_traits@_W@std@@@std@@QEAAAEAV01@O@Z) Export(296, ??6?$basic_ostream@_WU?$char_traits@_W@std@@@std@@QEAAAEAV01@P6AAEAV01@AEAV01@@Z@Z) Export(297, ??6?$basic_ostream@_WU?$char_traits@_W@std@@@std@@QEAAAEAV01@P6AAEAV?$basic_ios@_WU?$char_traits@_W@std@@@1@AEAV21@@Z@Z) Export(298, ??6?$basic_ostream@_WU?$char_traits@_W@std@@@std@@QEAAAEAV01@P6AAEAVios_base@1@AEAV21@@Z@Z) Export(299, ??6?$basic_ostream@_WU?$char_traits@_W@std@@@std@@QEAAAEAV01@PEAV?$basic_streambuf@_WU?$char_traits@_W@std@@@1@@Z) 
Export(300, ??6?$basic_ostream@_WU?$char_traits@_W@std@@@std@@QEAAAEAV01@PEBX@Z) Export(301, ??6?$basic_ostream@_WU?$char_traits@_W@std@@@std@@QEAAAEAV01@_J@Z) Export(302, ??6?$basic_ostream@_WU?$char_traits@_W@std@@@std@@QEAAAEAV01@_K@Z) Export(303, ??6?$basic_ostream@_WU?$char_traits@_W@std@@@std@@QEAAAEAV01@_N@Z) Export(304, ??7ios_base@std@@QEBA_NXZ) Export(305, ??Bid@locale@std@@QEAA_KXZ) Export(306, ??Bios_base@std@@QEBA_NXZ) Export(307, ??_7?$basic_ios@DU?$char_traits@D@std@@@std@@6B@) Export(308, ??_7?$basic_ios@GU?$char_traits@G@std@@@std@@6B@) Export(309, ??_7?$basic_ios@_WU?$char_traits@_W@std@@@std@@6B@) Export(310, ??_7?$basic_iostream@DU?$char_traits@D@std@@@std@@6B@) Export(311, ??_7?$basic_iostream@GU?$char_traits@G@std@@@std@@6B@) Export(312, ??_7?$basic_iostream@_WU?$char_traits@_W@std@@@std@@6B@) Export(313, ??_7?$basic_istream@DU?$char_traits@D@std@@@std@@6B@) Export(314, ??_7?$basic_istream@GU?$char_traits@G@std@@@std@@6B@) Export(315, ??_7?$basic_istream@_WU?$char_traits@_W@std@@@std@@6B@) Export(316, ??_7?$basic_ostream@DU?$char_traits@D@std@@@std@@6B@) Export(317, ??_7?$basic_ostream@GU?$char_traits@G@std@@@std@@6B@) Export(318, ??_7?$basic_ostream@_WU?$char_traits@_W@std@@@std@@6B@) Export(319, ??_7?$basic_streambuf@DU?$char_traits@D@std@@@std@@6B@) Export(320, ??_7?$basic_streambuf@GU?$char_traits@G@std@@@std@@6B@) Export(321, ??_7?$basic_streambuf@_WU?$char_traits@_W@std@@@std@@6B@) Export(322, ??_7?$codecvt@DDU_Mbstatet@@@std@@6B@) Export(323, ??_7?$codecvt@GDU_Mbstatet@@@std@@6B@) Export(324, ??_7?$codecvt@_SDU_Mbstatet@@@std@@6B@) Export(325, ??_7?$codecvt@_UDU_Mbstatet@@@std@@6B@) Export(326, ??_7?$codecvt@_WDU_Mbstatet@@@std@@6B@) Export(327, ??_7?$ctype@D@std@@6B@) Export(328, ??_7?$ctype@G@std@@6B@) Export(329, ??_7?$ctype@_W@std@@6B@) Export(330, ??_7?$num_get@DV?$istreambuf_iterator@DU?$char_traits@D@std@@@std@@@std@@6B@) Export(331, ??_7?$num_get@GV?$istreambuf_iterator@GU?$char_traits@G@std@@@std@@@std@@6B@) Export(332, ??_7?$num_get@_WV?$istreambuf_iterator@_WU?$char_traits@_W@std@@@std@@@std@@6B@) Export(333, ??_7?$num_put@DV?$ostreambuf_iterator@DU?$char_traits@D@std@@@std@@@std@@6B@) Export(334, ??_7?$num_put@GV?$ostreambuf_iterator@GU?$char_traits@G@std@@@std@@@std@@6B@) Export(335, ??_7?$num_put@_WV?$ostreambuf_iterator@_WU?$char_traits@_W@std@@@std@@@std@@6B@) Export(336, ??_7?$time_get@DV?$istreambuf_iterator@DU?$char_traits@D@std@@@std@@@std@@6B@) Export(337, ??_7?$time_get@GV?$istreambuf_iterator@GU?$char_traits@G@std@@@std@@@std@@6B@) Export(338, ??_7?$time_get@_WV?$istreambuf_iterator@_WU?$char_traits@_W@std@@@std@@@std@@6B@) Export(339, ??_7?$time_put@DV?$ostreambuf_iterator@DU?$char_traits@D@std@@@std@@@std@@6B@) Export(340, ??_7?$time_put@GV?$ostreambuf_iterator@GU?$char_traits@G@std@@@std@@@std@@6B@) Export(341, ??_7?$time_put@_WV?$ostreambuf_iterator@_WU?$char_traits@_W@std@@@std@@@std@@6B@) Export(342, ??_7_Facet_base@std@@6B@) Export(343, ??_7_Locimp@locale@std@@6B@) Export(344, ??_7codecvt_base@std@@6B@) Export(345, ??_7ctype_base@std@@6B@) Export(346, ??_7facet@locale@std@@6B@) Export(347, ??_7ios_base@std@@6B@) Export(348, ??_7time_base@std@@6B@) Export(349, ??_8?$basic_iostream@DU?$char_traits@D@std@@@std@@7B?$basic_istream@DU?$char_traits@D@std@@@1@@) 
Export(350, ??_8?$basic_iostream@DU?$char_traits@D@std@@@std@@7B?$basic_ostream@DU?$char_traits@D@std@@@1@@) Export(351, ??_8?$basic_iostream@GU?$char_traits@G@std@@@std@@7B?$basic_istream@GU?$char_traits@G@std@@@1@@) Export(352, ??_8?$basic_iostream@GU?$char_traits@G@std@@@std@@7B?$basic_ostream@GU?$char_traits@G@std@@@1@@) Export(353, ??_8?$basic_iostream@_WU?$char_traits@_W@std@@@std@@7B?$basic_istream@_WU?$char_traits@_W@std@@@1@@) Export(354, ??_8?$basic_iostream@_WU?$char_traits@_W@std@@@std@@7B?$basic_ostream@_WU?$char_traits@_W@std@@@1@@) Export(355, ??_8?$basic_istream@DU?$char_traits@D@std@@@std@@7B@) Export(356, ??_8?$basic_istream@GU?$char_traits@G@std@@@std@@7B@) Export(357, ??_8?$basic_istream@_WU?$char_traits@_W@std@@@std@@7B@) Export(358, ??_8?$basic_ostream@DU?$char_traits@D@std@@@std@@7B@) Export(359, ??_8?$basic_ostream@GU?$char_traits@G@std@@@std@@7B@) Export(360, ??_8?$basic_ostream@_WU?$char_traits@_W@std@@@std@@7B@) Export(361, ??_D?$basic_iostream@DU?$char_traits@D@std@@@std@@QEAAXXZ) Export(362, ??_D?$basic_iostream@GU?$char_traits@G@std@@@std@@QEAAXXZ) Export(363, ??_D?$basic_iostream@_WU?$char_traits@_W@std@@@std@@QEAAXXZ) Export(364, ??_D?$basic_istream@DU?$char_traits@D@std@@@std@@QEAAXXZ) Export(365, ??_D?$basic_istream@GU?$char_traits@G@std@@@std@@QEAAXXZ) Export(366, ??_D?$basic_istream@_WU?$char_traits@_W@std@@@std@@QEAAXXZ) Export(367, ??_D?$basic_ostream@DU?$char_traits@D@std@@@std@@QEAAXXZ) Export(368, ??_D?$basic_ostream@GU?$char_traits@G@std@@@std@@QEAAXXZ) Export(369, ??_D?$basic_ostream@_WU?$char_traits@_W@std@@@std@@QEAAXXZ) Export(370, ??_F?$codecvt@DDU_Mbstatet@@@std@@QEAAXXZ) Export(371, ??_F?$codecvt@GDU_Mbstatet@@@std@@QEAAXXZ) Export(372, ??_F?$codecvt@_SDU_Mbstatet@@@std@@QEAAXXZ) Export(373, ??_F?$codecvt@_UDU_Mbstatet@@@std@@QEAAXXZ) Export(374, ??_F?$codecvt@_WDU_Mbstatet@@@std@@QEAAXXZ) Export(375, ??_F?$ctype@D@std@@QEAAXXZ) Export(376, ??_F?$ctype@G@std@@QEAAXXZ) Export(377, ??_F?$ctype@_W@std@@QEAAXXZ) Export(378, ??_F?$num_get@DV?$istreambuf_iterator@DU?$char_traits@D@std@@@std@@@std@@QEAAXXZ) Export(379, ??_F?$num_get@GV?$istreambuf_iterator@GU?$char_traits@G@std@@@std@@@std@@QEAAXXZ) Export(380, ??_F?$num_get@_WV?$istreambuf_iterator@_WU?$char_traits@_W@std@@@std@@@std@@QEAAXXZ) Export(381, ??_F?$num_put@DV?$ostreambuf_iterator@DU?$char_traits@D@std@@@std@@@std@@QEAAXXZ) Export(382, ??_F?$num_put@GV?$ostreambuf_iterator@GU?$char_traits@G@std@@@std@@@std@@QEAAXXZ) Export(383, ??_F?$num_put@_WV?$ostreambuf_iterator@_WU?$char_traits@_W@std@@@std@@@std@@QEAAXXZ) Export(384, ??_F?$time_get@DV?$istreambuf_iterator@DU?$char_traits@D@std@@@std@@@std@@QEAAXXZ) Export(385, ??_F?$time_get@GV?$istreambuf_iterator@GU?$char_traits@G@std@@@std@@@std@@QEAAXXZ) Export(386, ??_F?$time_get@_WV?$istreambuf_iterator@_WU?$char_traits@_W@std@@@std@@@std@@QEAAXXZ) Export(387, ??_F?$time_put@DV?$ostreambuf_iterator@DU?$char_traits@D@std@@@std@@@std@@QEAAXXZ) Export(388, ??_F?$time_put@GV?$ostreambuf_iterator@GU?$char_traits@G@std@@@std@@@std@@QEAAXXZ) Export(389, ??_F?$time_put@_WV?$ostreambuf_iterator@_WU?$char_traits@_W@std@@@std@@@std@@QEAAXXZ) Export(390, ??_F_Locinfo@std@@QEAAXXZ) Export(391, ??_F_Timevec@std@@QEAAXXZ) Export(392, ??_Fcodecvt_base@std@@QEAAXXZ) Export(393, ??_Fctype_base@std@@QEAAXXZ) Export(394, ??_Ffacet@locale@std@@QEAAXXZ) Export(395, ??_Fid@locale@std@@QEAAXXZ) Export(396, ??_Ftime_base@std@@QEAAXXZ) Export(397, ?CaptureCallstack@platform@details@Concurrency@@YA_KPEAPEAX_K1@Z) Export(398, ?GetCurrentThreadId@platform@details@Concurrency@@YAJXZ) Export(399, ?GetNextAsyncId@platform@details@Concurrency@@YAIXZ) 
Export(400, ?ReportUnhandledError@_ExceptionHolder@details@Concurrency@@AEAAXXZ) Export(401, ?_Addcats@_Locinfo@std@@QEAAAEAV12@HPEBD@Z) Export(402, ?_Addfac@_Locimp@locale@std@@AEAAXPEAVfacet@23@_K@Z) Export(403, ?_Addstd@ios_base@std@@SAXPEAV12@@Z) Export(404, ?_Assign@_ContextCallback@details@Concurrency@@AEAAXPEAX@Z) Export(405, ?_Atexit@@YAXP6AXXZ@Z) Export(406, ?_BADOFF@std@@3_JB) Export(407, ?_C_str@?$_Yarn@D@std@@QEBAPEBDXZ) Export(408, ?_C_str@?$_Yarn@G@std@@QEBAPEBGXZ) Export(409, ?_C_str@?$_Yarn@_W@std@@QEBAPEB_WXZ) Export(410, ?_CallInContext@_ContextCallback@details@Concurrency@@QEBAXV?$function@$$A6AXXZ@std@@_N@Z) Export(411, ?_Callfns@ios_base@std@@AEAAXW4event@12@@Z) Export(412, ?_Capture@_ContextCallback@details@Concurrency@@AEAAXXZ) Export(413, ?_Clocptr@_Locimp@locale@std@@0PEAV123@EA) Export(414, ?_Decref@facet@locale@std@@UEAAPEAV_Facet_base@3@XZ) Export(415, ?_Donarrow@?$ctype@G@std@@IEBADGD@Z) Export(416, ?_Donarrow@?$ctype@_W@std@@IEBAD_WD@Z) Export(417, ?_Dowiden@?$ctype@G@std@@IEBAGD@Z) Export(418, ?_Dowiden@?$ctype@_W@std@@IEBA_WD@Z) Export(419, ?_Empty@?$_Yarn@D@std@@QEBA_NXZ) Export(420, ?_Empty@?$_Yarn@G@std@@QEBA_NXZ) Export(421, ?_Empty@?$_Yarn@_W@std@@QEBA_NXZ) Export(422, ?_Execute_once@std@@YAHAEAUonce_flag@1@P6AHPEAX1PEAPEAX@Z1@Z) Export(423, ?_Ffmt@?$num_put@DV?$ostreambuf_iterator@DU?$char_traits@D@std@@@std@@@std@@AEBAPEADPEADDH@Z) Export(424, ?_Ffmt@?$num_put@GV?$ostreambuf_iterator@GU?$char_traits@G@std@@@std@@@std@@AEBAPEADPEADDH@Z) Export(425, ?_Ffmt@?$num_put@_WV?$ostreambuf_iterator@_WU?$char_traits@_W@std@@@std@@@std@@AEBAPEADPEADDH@Z) Export(426, ?_Findarr@ios_base@std@@AEAAAEAU_Iosarray@12@H@Z) Export(427, ?_Fiopen@std@@YAPEAU_iobuf@@PEBDHH@Z) Export(428, ?_Fiopen@std@@YAPEAU_iobuf@@PEBGHH@Z) Export(429, ?_Fiopen@std@@YAPEAU_iobuf@@PEB_WHH@Z) Export(430, ?_Fput@?$num_put@DV?$ostreambuf_iterator@DU?$char_traits@D@std@@@std@@@std@@AEBA?AV?$ostreambuf_iterator@DU?$char_traits@D@std@@@2@V32@AEAVios_base@2@DPEBD_K@Z) Export(431, ?_Fput@?$num_put@GV?$ostreambuf_iterator@GU?$char_traits@G@std@@@std@@@std@@AEBA?AV?$ostreambuf_iterator@GU?$char_traits@G@std@@@2@V32@AEAVios_base@2@GPEBD_K@Z) Export(432, ?_Fput@?$num_put@_WV?$ostreambuf_iterator@_WU?$char_traits@_W@std@@@std@@@std@@AEBA?AV?$ostreambuf_iterator@_WU?$char_traits@_W@std@@@2@V32@AEAVios_base@2@_WPEBD_K@Z) Export(433, ?_Getcat@?$codecvt@DDU_Mbstatet@@@std@@SA_KPEAPEBVfacet@locale@2@PEBV42@@Z) Export(434, ?_Getcat@?$codecvt@GDU_Mbstatet@@@std@@SA_KPEAPEBVfacet@locale@2@PEBV42@@Z) Export(435, ?_Getcat@?$codecvt@_SDU_Mbstatet@@@std@@SA_KPEAPEBVfacet@locale@2@PEBV42@@Z) Export(436, ?_Getcat@?$codecvt@_UDU_Mbstatet@@@std@@SA_KPEAPEBVfacet@locale@2@PEBV42@@Z) Export(437, ?_Getcat@?$codecvt@_WDU_Mbstatet@@@std@@SA_KPEAPEBVfacet@locale@2@PEBV42@@Z) Export(438, ?_Getcat@?$ctype@D@std@@SA_KPEAPEBVfacet@locale@2@PEBV42@@Z) Export(439, ?_Getcat@?$ctype@G@std@@SA_KPEAPEBVfacet@locale@2@PEBV42@@Z) Export(440, ?_Getcat@?$ctype@_W@std@@SA_KPEAPEBVfacet@locale@2@PEBV42@@Z) Export(441, ?_Getcat@?$num_get@DV?$istreambuf_iterator@DU?$char_traits@D@std@@@std@@@std@@SA_KPEAPEBVfacet@locale@2@PEBV42@@Z) Export(442, ?_Getcat@?$num_get@GV?$istreambuf_iterator@GU?$char_traits@G@std@@@std@@@std@@SA_KPEAPEBVfacet@locale@2@PEBV42@@Z) Export(443, ?_Getcat@?$num_get@_WV?$istreambuf_iterator@_WU?$char_traits@_W@std@@@std@@@std@@SA_KPEAPEBVfacet@locale@2@PEBV42@@Z) Export(444, ?_Getcat@?$num_put@DV?$ostreambuf_iterator@DU?$char_traits@D@std@@@std@@@std@@SA_KPEAPEBVfacet@locale@2@PEBV42@@Z) Export(445, ?_Getcat@?$num_put@GV?$ostreambuf_iterator@GU?$char_traits@G@std@@@std@@@std@@SA_KPEAPEBVfacet@locale@2@PEBV42@@Z) Export(446, ?_Getcat@?$num_put@_WV?$ostreambuf_iterator@_WU?$char_traits@_W@std@@@std@@@std@@SA_KPEAPEBVfacet@locale@2@PEBV42@@Z) Export(447, ?_Getcat@?$time_get@DV?$istreambuf_iterator@DU?$char_traits@D@std@@@std@@@std@@SA_KPEAPEBVfacet@locale@2@PEBV42@@Z) Export(448, ?_Getcat@?$time_get@GV?$istreambuf_iterator@GU?$char_traits@G@std@@@std@@@std@@SA_KPEAPEBVfacet@locale@2@PEBV42@@Z) Export(449, ?_Getcat@?$time_get@_WV?$istreambuf_iterator@_WU?$char_traits@_W@std@@@std@@@std@@SA_KPEAPEBVfacet@locale@2@PEBV42@@Z) 
Export(450, ?_Getcat@?$time_put@DV?$ostreambuf_iterator@DU?$char_traits@D@std@@@std@@@std@@SA_KPEAPEBVfacet@locale@2@PEBV42@@Z) Export(451, ?_Getcat@?$time_put@GV?$ostreambuf_iterator@GU?$char_traits@G@std@@@std@@@std@@SA_KPEAPEBVfacet@locale@2@PEBV42@@Z) Export(452, ?_Getcat@?$time_put@_WV?$ostreambuf_iterator@_WU?$char_traits@_W@std@@@std@@@std@@SA_KPEAPEBVfacet@locale@2@PEBV42@@Z) Export(453, ?_Getcat@facet@locale@std@@SA_KPEAPEBV123@PEBV23@@Z) Export(454, ?_Getcoll@_Locinfo@std@@QEBA?AU_Collvec@@XZ) Export(455, ?_Getctype@_Locinfo@std@@QEBA?AU_Ctypevec@@XZ) Export(456, ?_Getcvt@_Locinfo@std@@QEBA?AU_Cvtvec@@XZ) Export(457, ?_Getdateorder@_Locinfo@std@@QEBAHXZ) Export(458, ?_Getdays@_Locinfo@std@@QEBAPEBDXZ) Export(459, ?_Getfalse@_Locinfo@std@@QEBAPEBDXZ) Export(460, ?_Getffld@?$num_get@DV?$istreambuf_iterator@DU?$char_traits@D@std@@@std@@@std@@AEBAHPEADAEAV?$istreambuf_iterator@DU?$char_traits@D@std@@@2@1AEAVios_base@2@PEAH@Z) Export(461, ?_Getffld@?$num_get@GV?$istreambuf_iterator@GU?$char_traits@G@std@@@std@@@std@@AEBAHPEADAEAV?$istreambuf_iterator@GU?$char_traits@G@std@@@2@1AEAVios_base@2@PEAH@Z) Export(462, ?_Getffld@?$num_get@_WV?$istreambuf_iterator@_WU?$char_traits@_W@std@@@std@@@std@@AEBAHPEADAEAV?$istreambuf_iterator@_WU?$char_traits@_W@std@@@2@1AEAVios_base@2@PEAH@Z) Export(463, ?_Getffldx@?$num_get@DV?$istreambuf_iterator@DU?$char_traits@D@std@@@std@@@std@@AEBAHPEADAEAV?$istreambuf_iterator@DU?$char_traits@D@std@@@2@1AEAVios_base@2@PEAH@Z) Export(464, ?_Getffldx@?$num_get@GV?$istreambuf_iterator@GU?$char_traits@G@std@@@std@@@std@@AEBAHPEADAEAV?$istreambuf_iterator@GU?$char_traits@G@std@@@2@1AEAVios_base@2@PEAH@Z) Export(465, ?_Getffldx@?$num_get@_WV?$istreambuf_iterator@_WU?$char_traits@_W@std@@@std@@@std@@AEBAHPEADAEAV?$istreambuf_iterator@_WU?$char_traits@_W@std@@@2@1AEAVios_base@2@PEAH@Z) Export(466, ?_Getfmt@?$time_get@DV?$istreambuf_iterator@DU?$char_traits@D@std@@@std@@@std@@IEBA?AV?$istreambuf_iterator@DU?$char_traits@D@std@@@2@V32@0AEAVios_base@2@AEAHPEAUtm@@PEBD@Z) Export(467, ?_Getfmt@?$time_get@GV?$istreambuf_iterator@GU?$char_traits@G@std@@@std@@@std@@IEBA?AV?$istreambuf_iterator@GU?$char_traits@G@std@@@2@V32@0AEAVios_base@2@AEAHPEAUtm@@PEBD@Z) Export(468, ?_Getfmt@?$time_get@_WV?$istreambuf_iterator@_WU?$char_traits@_W@std@@@std@@@std@@IEBA?AV?$istreambuf_iterator@_WU?$char_traits@_W@std@@@2@V32@0AEAVios_base@2@AEAHPEAUtm@@PEBD@Z) Export(469, ?_Getgloballocale@locale@std@@CAPEAV_Locimp@12@XZ) Export(470, ?_Getifld@?$num_get@DV?$istreambuf_iterator@DU?$char_traits@D@std@@@std@@@std@@AEBAHPEADAEAV?$istreambuf_iterator@DU?$char_traits@D@std@@@2@1HAEBVlocale@2@@Z) Export(471, ?_Getifld@?$num_get@GV?$istreambuf_iterator@GU?$char_traits@G@std@@@std@@@std@@AEBAHPEADAEAV?$istreambuf_iterator@GU?$char_traits@G@std@@@2@1HAEBVlocale@2@@Z) Export(472, ?_Getifld@?$num_get@_WV?$istreambuf_iterator@_WU?$char_traits@_W@std@@@std@@@std@@AEBAHPEADAEAV?$istreambuf_iterator@_WU?$char_traits@_W@std@@@2@1HAEBVlocale@2@@Z) Export(473, ?_Getint@?$time_get@DV?$istreambuf_iterator@DU?$char_traits@D@std@@@std@@@std@@AEBAHAEAV?$istreambuf_iterator@DU?$char_traits@D@std@@@2@0HHAEAHAEBV?$ctype@D@2@@Z) Export(474, ?_Getint@?$time_get@GV?$istreambuf_iterator@GU?$char_traits@G@std@@@std@@@std@@AEBAHAEAV?$istreambuf_iterator@GU?$char_traits@G@std@@@2@0HHAEAHAEBV?$ctype@G@2@@Z) Export(475, ?_Getint@?$time_get@_WV?$istreambuf_iterator@_WU?$char_traits@_W@std@@@std@@@std@@AEBAHAEAV?$istreambuf_iterator@_WU?$char_traits@_W@std@@@2@0HHAEAHAEBV?$ctype@_W@2@@Z) Export(476, ?_Getlconv@_Locinfo@std@@QEBAPEBUlconv@@XZ) Export(477, ?_Getmonths@_Locinfo@std@@QEBAPEBDXZ) Export(478, ?_Getname@_Locinfo@std@@QEBAPEBDXZ) Export(479, ?_Getptr@_Timevec@std@@QEBAPEAXXZ) Export(480, ?_Gettnames@_Locinfo@std@@QEBA?AV_Timevec@2@XZ) Export(481, ?_Gettrue@_Locinfo@std@@QEBAPEBDXZ) Export(482, ?_Gnavail@?$basic_streambuf@DU?$char_traits@D@std@@@std@@IEBA_JXZ) Export(483, ?_Gnavail@?$basic_streambuf@GU?$char_traits@G@std@@@std@@IEBA_JXZ) Export(484, ?_Gnavail@?$basic_streambuf@_WU?$char_traits@_W@std@@@std@@IEBA_JXZ) Export(485, ?_Gndec@?$basic_streambuf@DU?$char_traits@D@std@@@std@@IEAAPEADXZ) Export(486, ?_Gndec@?$basic_streambuf@GU?$char_traits@G@std@@@std@@IEAAPEAGXZ) Export(487, ?_Gndec@?$basic_streambuf@_WU?$char_traits@_W@std@@@std@@IEAAPEA_WXZ) Export(488, ?_Gninc@?$basic_streambuf@DU?$char_traits@D@std@@@std@@IEAAPEADXZ) Export(489, ?_Gninc@?$basic_streambuf@GU?$char_traits@G@std@@@std@@IEAAPEAGXZ) Export(490, ?_Gninc@?$basic_streambuf@_WU?$char_traits@_W@std@@@std@@IEAAPEA_WXZ) Export(491, ?_Gnpreinc@?$basic_streambuf@DU?$char_traits@D@std@@@std@@IEAAPEADXZ) Export(492, ?_Gnpreinc@?$basic_streambuf@GU?$char_traits@G@std@@@std@@IEAAPEAGXZ) Export(493, ?_Gnpreinc@?$basic_streambuf@_WU?$char_traits@_W@std@@@std@@IEAAPEA_WXZ) Export(494, ?_Id_cnt@id@locale@std@@0HA) Export(495, ?_Ifmt@?$num_put@DV?$ostreambuf_iterator@DU?$char_traits@D@std@@@std@@@std@@AEBAPEADPEADPEBDH@Z) Export(496, ?_Ifmt@?$num_put@GV?$ostreambuf_iterator@GU?$char_traits@G@std@@@std@@@std@@AEBAPEADPEADPEBDH@Z) Export(497, ?_Ifmt@?$num_put@_WV?$ostreambuf_iterator@_WU?$char_traits@_W@std@@@std@@@std@@AEBAPEADPEADPEBDH@Z) Export(498, ?_Incref@facet@locale@std@@UEAAXXZ) Export(499, ?_Index@ios_base@std@@0HA) 
Export(500, ?_Init@?$basic_streambuf@DU?$char_traits@D@std@@@std@@IEAAXPEAPEAD0PEAH001@Z) Export(501, ?_Init@?$basic_streambuf@DU?$char_traits@D@std@@@std@@IEAAXXZ) Export(502, ?_Init@?$basic_streambuf@GU?$char_traits@G@std@@@std@@IEAAXPEAPEAG0PEAH001@Z) Export(503, ?_Init@?$basic_streambuf@GU?$char_traits@G@std@@@std@@IEAAXXZ) Export(504, ?_Init@?$basic_streambuf@_WU?$char_traits@_W@std@@@std@@IEAAXPEAPEA_W0PEAH001@Z) Export(505, ?_Init@?$basic_streambuf@_WU?$char_traits@_W@std@@@std@@IEAAXXZ) Export(506, ?_Init@?$codecvt@DDU_Mbstatet@@@std@@IEAAXAEBV_Locinfo@2@@Z) Export(507, ?_Init@?$codecvt@GDU_Mbstatet@@@std@@IEAAXAEBV_Locinfo@2@@Z) Export(508, ?_Init@?$codecvt@_SDU_Mbstatet@@@std@@IEAAXAEBV_Locinfo@2@@Z) Export(509, ?_Init@?$codecvt@_UDU_Mbstatet@@@std@@IEAAXAEBV_Locinfo@2@@Z) Export(510, ?_Init@?$codecvt@_WDU_Mbstatet@@@std@@IEAAXAEBV_Locinfo@2@@Z) Export(511, ?_Init@?$ctype@D@std@@IEAAXAEBV_Locinfo@2@@Z) Export(512, ?_Init@?$ctype@G@std@@IEAAXAEBV_Locinfo@2@@Z) Export(513, ?_Init@?$ctype@_W@std@@IEAAXAEBV_Locinfo@2@@Z) Export(514, ?_Init@?$num_get@DV?$istreambuf_iterator@DU?$char_traits@D@std@@@std@@@std@@IEAAXAEBV_Locinfo@2@@Z) Export(515, ?_Init@?$num_get@GV?$istreambuf_iterator@GU?$char_traits@G@std@@@std@@@std@@IEAAXAEBV_Locinfo@2@@Z) Export(516, ?_Init@?$num_get@_WV?$istreambuf_iterator@_WU?$char_traits@_W@std@@@std@@@std@@IEAAXAEBV_Locinfo@2@@Z) Export(517, ?_Init@?$num_put@DV?$ostreambuf_iterator@DU?$char_traits@D@std@@@std@@@std@@IEAAXAEBV_Locinfo@2@@Z) Export(518, ?_Init@?$num_put@GV?$ostreambuf_iterator@GU?$char_traits@G@std@@@std@@@std@@IEAAXAEBV_Locinfo@2@@Z) Export(519, ?_Init@?$num_put@_WV?$ostreambuf_iterator@_WU?$char_traits@_W@std@@@std@@@std@@IEAAXAEBV_Locinfo@2@@Z) Export(520, ?_Init@?$time_get@DV?$istreambuf_iterator@DU?$char_traits@D@std@@@std@@@std@@IEAAXAEBV_Locinfo@2@@Z) Export(521, ?_Init@?$time_get@GV?$istreambuf_iterator@GU?$char_traits@G@std@@@std@@@std@@IEAAXAEBV_Locinfo@2@@Z) Export(522, ?_Init@?$time_get@_WV?$istreambuf_iterator@_WU?$char_traits@_W@std@@@std@@@std@@IEAAXAEBV_Locinfo@2@@Z) Export(523, ?_Init@?$time_put@DV?$ostreambuf_iterator@DU?$char_traits@D@std@@@std@@@std@@IEAAXAEBV_Locinfo@2@@Z) Export(524, ?_Init@?$time_put@GV?$ostreambuf_iterator@GU?$char_traits@G@std@@@std@@@std@@IEAAXAEBV_Locinfo@2@@Z) Export(525, ?_Init@?$time_put@_WV?$ostreambuf_iterator@_WU?$char_traits@_W@std@@@std@@@std@@IEAAXAEBV_Locinfo@2@@Z) Export(526, ?_Init@ios_base@std@@IEAAXXZ) Export(527, ?_Init@locale@std@@CAPEAV_Locimp@12@_N@Z) Export(528, ?_Init_cnt@Init@ios_base@std@@0HA) Export(529, ?_Init_cnt@_UShinit@std@@0HA) Export(530, ?_Init_cnt@_Winit@std@@0HA) Export(531, ?_Init_cnt_func@Init@ios_base@std@@CAAEAHXZ) Export(532, ?_Init_ctor@Init@ios_base@std@@CAXPEAV123@@Z) Export(533, ?_Init_dtor@Init@ios_base@std@@CAXPEAV123@@Z) Export(534, ?_Init_locks_ctor@_Init_locks@std@@CAXPEAV12@@Z) Export(535, ?_Init_locks_dtor@_Init_locks@std@@CAXPEAV12@@Z) Export(536, ?_Ios_base_dtor@ios_base@std@@CAXPEAV12@@Z) Export(537, ?_Ipfx@?$basic_istream@DU?$char_traits@D@std@@@std@@QEAA_N_N@Z) Export(538, ?_Ipfx@?$basic_istream@GU?$char_traits@G@std@@@std@@QEAA_N_N@Z) Export(539, ?_Ipfx@?$basic_istream@_WU?$char_traits@_W@std@@@std@@QEAA_N_N@Z) Export(540, ?_Iput@?$num_put@DV?$ostreambuf_iterator@DU?$char_traits@D@std@@@std@@@std@@AEBA?AV?$ostreambuf_iterator@DU?$char_traits@D@std@@@2@V32@AEAVios_base@2@DPEAD_K@Z) Export(541, ?_Iput@?$num_put@GV?$ostreambuf_iterator@GU?$char_traits@G@std@@@std@@@std@@AEBA?AV?$ostreambuf_iterator@GU?$char_traits@G@std@@@2@V32@AEAVios_base@2@GPEAD_K@Z) Export(542, ?_Iput@?$num_put@_WV?$ostreambuf_iterator@_WU?$char_traits@_W@std@@@std@@@std@@AEBA?AV?$ostreambuf_iterator@_WU?$char_traits@_W@std@@@2@V32@AEAVios_base@2@_WPEAD_K@Z) Export(543, ?_IsCurrentOriginSTA@_ContextCallback@details@Concurrency@@CA_NXZ) Export(544, ?_IsNonBlockingThread@_Task_impl_base@details@Concurrency@@SA_NXZ) Export(545, ?_Locimp_Addfac@_Locimp@locale@std@@CAXPEAV123@PEAVfacet@23@_K@Z) Export(546, ?_Locimp_ctor@_Locimp@locale@std@@CAXPEAV123@AEBV123@@Z) Export(547, ?_Locimp_dtor@_Locimp@locale@std@@CAXPEAV123@@Z) Export(548, ?_Locinfo_Addcats@_Locinfo@std@@SAAEAV12@PEAV12@HPEBD@Z) Export(549, ?_Locinfo_ctor@_Locinfo@std@@SAXPEAV12@HPEBD@Z) 
Export(550, ?_Locinfo_ctor@_Locinfo@std@@SAXPEAV12@PEBD@Z) Export(551, ?_Locinfo_dtor@_Locinfo@std@@SAXPEAV12@@Z) Export(552, ?_Lock@?$basic_streambuf@DU?$char_traits@D@std@@@std@@UEAAXXZ) Export(553, ?_Lock@?$basic_streambuf@GU?$char_traits@G@std@@@std@@UEAAXXZ) Export(554, ?_Lock@?$basic_streambuf@_WU?$char_traits@_W@std@@@std@@UEAAXXZ) Export(555, ?_Lockit_ctor@_Lockit@std@@CAXPEAV12@@Z) Export(556, ?_Lockit_ctor@_Lockit@std@@CAXPEAV12@H@Z) Export(557, ?_Lockit_ctor@_Lockit@std@@SAXH@Z) Export(558, ?_Lockit_dtor@_Lockit@std@@CAXPEAV12@@Z) Export(559, ?_Lockit_dtor@_Lockit@std@@SAXH@Z) Export(560, ?_LogCancelTask@_TaskEventLogger@details@Concurrency@@QEAAXXZ) Export(561, ?_LogScheduleTask@_TaskEventLogger@details@Concurrency@@QEAAX_N@Z) Export(562, ?_LogTaskCompleted@_TaskEventLogger@details@Concurrency@@QEAAXXZ) Export(563, ?_LogTaskExecutionCompleted@_TaskEventLogger@details@Concurrency@@QEAAXXZ) Export(564, ?_LogWorkItemCompleted@_TaskEventLogger@details@Concurrency@@QEAAXXZ) Export(565, ?_LogWorkItemStarted@_TaskEventLogger@details@Concurrency@@QEAAXXZ) Export(566, ?_MP_Add@std@@YAXQEA_K_K@Z) Export(567, ?_MP_Get@std@@YA_KQEA_K@Z) Export(568, ?_MP_Mul@std@@YAXQEA_K_K1@Z) Export(569, ?_MP_Rem@std@@YAXQEA_K_K@Z) Export(570, ?_Makeloc@_Locimp@locale@std@@CAPEAV123@AEBV_Locinfo@3@HPEAV123@PEBV23@@Z) Export(571, ?_Makeushloc@_Locimp@locale@std@@CAXAEBV_Locinfo@3@HPEAV123@PEBV23@@Z) Export(572, ?_Makewloc@_Locimp@locale@std@@CAXAEBV_Locinfo@3@HPEAV123@PEBV23@@Z) Export(573, ?_Makexloc@_Locimp@locale@std@@CAXAEBV_Locinfo@3@HPEAV123@PEBV23@@Z) Export(574, ?_Mtx_delete@threads@stdext@@YAXPEAX@Z) Export(575, ?_Mtx_lock@threads@stdext@@YAXPEAX@Z) Export(576, ?_Mtx_new@threads@stdext@@YAXAEAPEAX@Z) Export(577, ?_Mtx_unlock@threads@stdext@@YAXPEAX@Z) Export(578, ?_New_Locimp@_Locimp@locale@std@@CAPEAV123@AEBV123@@Z) Export(579, ?_New_Locimp@_Locimp@locale@std@@CAPEAV123@_N@Z) Export(580, ?_Osfx@?$basic_ostream@DU?$char_traits@D@std@@@std@@QEAAXXZ) Export(581, ?_Osfx@?$basic_ostream@GU?$char_traits@G@std@@@std@@QEAAXXZ) Export(582, ?_Osfx@?$basic_ostream@_WU?$char_traits@_W@std@@@std@@QEAAXXZ) Export(583, ?_Pnavail@?$basic_streambuf@DU?$char_traits@D@std@@@std@@IEBA_JXZ) Export(584, ?_Pnavail@?$basic_streambuf@GU?$char_traits@G@std@@@std@@IEBA_JXZ) Export(585, ?_Pnavail@?$basic_streambuf@_WU?$char_traits@_W@std@@@std@@IEBA_JXZ) Export(586, ?_Pninc@?$basic_streambuf@DU?$char_traits@D@std@@@std@@IEAAPEADXZ) Export(587, ?_Pninc@?$basic_streambuf@GU?$char_traits@G@std@@@std@@IEAAPEAGXZ) Export(588, ?_Pninc@?$basic_streambuf@_WU?$char_traits@_W@std@@@std@@IEAAPEA_WXZ) Export(589, ?_Ptr_cerr@std@@3PEAV?$basic_ostream@DU?$char_traits@D@std@@@1@EA) Export(590, ?_Ptr_cin@std@@3PEAV?$basic_istream@DU?$char_traits@D@std@@@1@EA) Export(591, ?_Ptr_clog@std@@3PEAV?$basic_ostream@DU?$char_traits@D@std@@@1@EA) Export(592, ?_Ptr_cout@std@@3PEAV?$basic_ostream@DU?$char_traits@D@std@@@1@EA) Export(593, ?_Ptr_wcerr@std@@3PEAV?$basic_ostream@GU?$char_traits@G@std@@@1@EA) Export(594, ?_Ptr_wcerr@std@@3PEAV?$basic_ostream@_WU?$char_traits@_W@std@@@1@EA) Export(595, ?_Ptr_wcin@std@@3PEAV?$basic_istream@GU?$char_traits@G@std@@@1@EA) Export(596, ?_Ptr_wcin@std@@3PEAV?$basic_istream@_WU?$char_traits@_W@std@@@1@EA) Export(597, ?_Ptr_wclog@std@@3PEAV?$basic_ostream@GU?$char_traits@G@std@@@1@EA) Export(598, ?_Ptr_wclog@std@@3PEAV?$basic_ostream@_WU?$char_traits@_W@std@@@1@EA) Export(599, ?_Ptr_wcout@std@@3PEAV?$basic_ostream@GU?$char_traits@G@std@@@1@EA) 
Export(600, ?_Ptr_wcout@std@@3PEAV?$basic_ostream@_WU?$char_traits@_W@std@@@1@EA) Export(601, ?_Put@?$num_put@DV?$ostreambuf_iterator@DU?$char_traits@D@std@@@std@@@std@@AEBA?AV?$ostreambuf_iterator@DU?$char_traits@D@std@@@2@V32@PEBD_K@Z) Export(602, ?_Put@?$num_put@GV?$ostreambuf_iterator@GU?$char_traits@G@std@@@std@@@std@@AEBA?AV?$ostreambuf_iterator@GU?$char_traits@G@std@@@2@V32@PEBG_K@Z) Export(603, ?_Put@?$num_put@_WV?$ostreambuf_iterator@_WU?$char_traits@_W@std@@@std@@@std@@AEBA?AV?$ostreambuf_iterator@_WU?$char_traits@_W@std@@@2@V32@PEB_W_K@Z) Export(604, ?_Raise_handler@std@@3P6AXAEBVexception@stdext@@@ZEA) Export(605, ?_Random_device@std@@YAIXZ) Export(606, ?_Release_chore@details@Concurrency@@YAXPEAU_Threadpool_chore@12@@Z) Export(607, ?_Rep@?$num_put@DV?$ostreambuf_iterator@DU?$char_traits@D@std@@@std@@@std@@AEBA?AV?$ostreambuf_iterator@DU?$char_traits@D@std@@@2@V32@D_K@Z) Export(608, ?_Rep@?$num_put@GV?$ostreambuf_iterator@GU?$char_traits@G@std@@@std@@@std@@AEBA?AV?$ostreambuf_iterator@GU?$char_traits@G@std@@@2@V32@G_K@Z) Export(609, ?_Rep@?$num_put@_WV?$ostreambuf_iterator@_WU?$char_traits@_W@std@@@std@@@std@@AEBA?AV?$ostreambuf_iterator@_WU?$char_traits@_W@std@@@2@V32@_W_K@Z) Export(610, ?_ReportUnobservedException@details@Concurrency@@YAXXZ) Export(611, ?_Reschedule_chore@details@Concurrency@@YAHPEBU_Threadpool_chore@12@@Z) Export(612, ?_Reset@_ContextCallback@details@Concurrency@@AEAAXXZ) Export(613, ?_Rethrow_future_exception@std@@YAXVexception_ptr@1@@Z) Export(614, ?_Rng_abort@std@@YAXPEBD@Z) Export(615, ?_Schedule_chore@details@Concurrency@@YAHPEAU_Threadpool_chore@12@@Z) Export(616, ?_Setgloballocale@locale@std@@CAXPEAX@Z) Export(617, ?_Src@?1??_Getffld@?$num_get@DV?$istreambuf_iterator@DU?$char_traits@D@std@@@std@@@std@@AEBAHPEADAEAV?$istreambuf_iterator@DU?$char_traits@D@std@@@3@1AEAVios_base@3@PEAH@Z@4QBDB) Export(618, ?_Src@?1??_Getffld@?$num_get@GV?$istreambuf_iterator@GU?$char_traits@G@std@@@std@@@std@@AEBAHPEADAEAV?$istreambuf_iterator@GU?$char_traits@G@std@@@3@1AEAVios_base@3@PEAH@Z@4QBDB) Export(619, ?_Src@?1??_Getffld@?$num_get@_WV?$istreambuf_iterator@_WU?$char_traits@_W@std@@@std@@@std@@AEBAHPEADAEAV?$istreambuf_iterator@_WU?$char_traits@_W@std@@@3@1AEAVios_base@3@PEAH@Z@4QBDB) Export(620, ?_Src@?1??_Getffldx@?$num_get@DV?$istreambuf_iterator@DU?$char_traits@D@std@@@std@@@std@@AEBAHPEADAEAV?$istreambuf_iterator@DU?$char_traits@D@std@@@3@1AEAVios_base@3@PEAH@Z@4QBDB) Export(621, ?_Src@?1??_Getffldx@?$num_get@GV?$istreambuf_iterator@GU?$char_traits@G@std@@@std@@@std@@AEBAHPEADAEAV?$istreambuf_iterator@GU?$char_traits@G@std@@@3@1AEAVios_base@3@PEAH@Z@4QBDB) Export(622, ?_Src@?1??_Getffldx@?$num_get@_WV?$istreambuf_iterator@_WU?$char_traits@_W@std@@@std@@@std@@AEBAHPEADAEAV?$istreambuf_iterator@_WU?$char_traits@_W@std@@@3@1AEAVios_base@3@PEAH@Z@4QBDB) Export(623, ?_Src@?1??_Getifld@?$num_get@DV?$istreambuf_iterator@DU?$char_traits@D@std@@@std@@@std@@AEBAHPEADAEAV?$istreambuf_iterator@DU?$char_traits@D@std@@@3@1HAEBVlocale@3@@Z@4QBDB) Export(624, ?_Src@?1??_Getifld@?$num_get@GV?$istreambuf_iterator@GU?$char_traits@G@std@@@std@@@std@@AEBAHPEADAEAV?$istreambuf_iterator@GU?$char_traits@G@std@@@3@1HAEBVlocale@3@@Z@4QBDB) Export(625, ?_Src@?1??_Getifld@?$num_get@_WV?$istreambuf_iterator@_WU?$char_traits@_W@std@@@std@@@std@@AEBAHPEADAEAV?$istreambuf_iterator@_WU?$char_traits@_W@std@@@3@1HAEBVlocale@3@@Z@4QBDB) Export(626, ?_Sync@ios_base@std@@0_NA) Export(627, ?_Syserror_map@std@@YAPEBDH@Z) Export(628, ?_Throw_C_error@std@@YAXH@Z) Export(629, ?_Throw_Cpp_error@std@@YAXH@Z) Export(630, ?_Throw_future_error@std@@YAXAEBVerror_code@1@@Z) Export(631, ?_Tidy@?$_Yarn@D@std@@AEAAXXZ) Export(632, ?_Tidy@?$_Yarn@G@std@@AEAAXXZ) Export(633, ?_Tidy@?$_Yarn@_W@std@@AEAAXXZ) Export(634, ?_Tidy@?$ctype@D@std@@IEAAXXZ) Export(635, ?_Tidy@?$time_get@DV?$istreambuf_iterator@DU?$char_traits@D@std@@@std@@@std@@AEAAXXZ) Export(636, ?_Tidy@?$time_get@GV?$istreambuf_iterator@GU?$char_traits@G@std@@@std@@@std@@AEAAXXZ) Export(637, ?_Tidy@?$time_get@_WV?$istreambuf_iterator@_WU?$char_traits@_W@std@@@std@@@std@@AEAAXXZ) Export(638, ?_Tidy@ios_base@std@@AEAAXXZ) Export(639, ?_Unlock@?$basic_streambuf@DU?$char_traits@D@std@@@std@@UEAAXXZ) Export(640, ?_Unlock@?$basic_streambuf@GU?$char_traits@G@std@@@std@@UEAAXXZ) Export(641, ?_Unlock@?$basic_streambuf@_WU?$char_traits@_W@std@@@std@@UEAAXXZ) Export(642, ?_W_Getdays@_Locinfo@std@@QEBAPEBGXZ) Export(643, ?_W_Getmonths@_Locinfo@std@@QEBAPEBGXZ) Export(644, ?_W_Gettnames@_Locinfo@std@@QEBA?AV_Timevec@2@XZ) Export(645, ?_Winerror_map@std@@YAHH@Z) Export(646, ?_Winerror_message@std@@YAKKPEADK@Z) Export(647, ?_XGetLastError@std@@YAXXZ) Export(648, ?_XLgamma@std@@YAMM@Z) Export(649, ?_XLgamma@std@@YANN@Z) 
Export(650, ?_XLgamma@std@@YAOO@Z) Export(651, ?_Xbad_alloc@std@@YAXXZ) Export(652, ?_Xbad_function_call@std@@YAXXZ) Export(653, ?_Xinvalid_argument@std@@YAXPEBD@Z) Export(654, ?_Xlength_error@std@@YAXPEBD@Z) Export(655, ?_Xout_of_range@std@@YAXPEBD@Z) Export(656, ?_Xoverflow_error@std@@YAXPEBD@Z) Export(657, ?_Xregex_error@std@@YAXW4error_type@regex_constants@1@@Z) Export(658, ?_Xruntime_error@std@@YAXPEBD@Z) Export(659, ?__ExceptionPtrAssign@@YAXPEAXPEBX@Z) Export(660, ?__ExceptionPtrCompare@@YA_NPEBX0@Z) Export(661, ?__ExceptionPtrCopy@@YAXPEAXPEBX@Z) Export(662, ?__ExceptionPtrCopyException@@YAXPEAXPEBX1@Z) Export(663, ?__ExceptionPtrCreate@@YAXPEAX@Z) Export(664, ?__ExceptionPtrCurrentException@@YAXPEAX@Z) Export(665, ?__ExceptionPtrDestroy@@YAXPEAX@Z) Export(666, ?__ExceptionPtrRethrow@@YAXPEBX@Z) Export(667, ?__ExceptionPtrSwap@@YAXPEAX0@Z) Export(668, ?__ExceptionPtrToBool@@YA_NPEBX@Z) Export(669, ?always_noconv@codecvt_base@std@@QEBA_NXZ) Export(670, ?bad@ios_base@std@@QEBA_NXZ) Export(671, ?c_str@?$_Yarn@D@std@@QEBAPEBDXZ) Export(672, ?c_str@?$_Yarn@G@std@@QEBAPEBGXZ) Export(673, ?c_str@?$_Yarn@_W@std@@QEBAPEB_WXZ) Export(674, ?cerr@std@@3V?$basic_ostream@DU?$char_traits@D@std@@@1@A) Export(675, ?cin@std@@3V?$basic_istream@DU?$char_traits@D@std@@@1@A) Export(676, ?classic@locale@std@@SAAEBV12@XZ) Export(677, ?classic_table@?$ctype@D@std@@SAPEBFXZ) Export(678, ?clear@?$basic_ios@DU?$char_traits@D@std@@@std@@QEAAXH_N@Z) Export(679, ?clear@?$basic_ios@DU?$char_traits@D@std@@@std@@QEAAXI@Z) Export(680, ?clear@?$basic_ios@GU?$char_traits@G@std@@@std@@QEAAXH_N@Z) Export(681, ?clear@?$basic_ios@GU?$char_traits@G@std@@@std@@QEAAXI@Z) Export(682, ?clear@?$basic_ios@_WU?$char_traits@_W@std@@@std@@QEAAXH_N@Z) Export(683, ?clear@?$basic_ios@_WU?$char_traits@_W@std@@@std@@QEAAXI@Z) Export(684, ?clear@ios_base@std@@QEAAXH@Z) Export(685, ?clear@ios_base@std@@QEAAXH_N@Z) Export(686, ?clear@ios_base@std@@QEAAXI@Z) Export(687, ?clog@std@@3V?$basic_ostream@DU?$char_traits@D@std@@@1@A) Export(688, ?copyfmt@?$basic_ios@DU?$char_traits@D@std@@@std@@QEAAAEAV12@AEBV12@@Z) Export(689, ?copyfmt@?$basic_ios@GU?$char_traits@G@std@@@std@@QEAAAEAV12@AEBV12@@Z) Export(690, ?copyfmt@?$basic_ios@_WU?$char_traits@_W@std@@@std@@QEAAAEAV12@AEBV12@@Z) Export(691, ?copyfmt@ios_base@std@@QEAAAEAV12@AEBV12@@Z) Export(692, ?cout@std@@3V?$basic_ostream@DU?$char_traits@D@std@@@1@A) Export(693, ?date_order@?$time_get@DV?$istreambuf_iterator@DU?$char_traits@D@std@@@std@@@std@@QEBA?AW4dateorder@time_base@2@XZ) Export(694, ?date_order@?$time_get@GV?$istreambuf_iterator@GU?$char_traits@G@std@@@std@@@std@@QEBA?AW4dateorder@time_base@2@XZ) Export(695, ?date_order@?$time_get@_WV?$istreambuf_iterator@_WU?$char_traits@_W@std@@@std@@@std@@QEBA?AW4dateorder@time_base@2@XZ) Export(696, ?do_always_noconv@?$codecvt@DDU_Mbstatet@@@std@@MEBA_NXZ) Export(697, ?do_always_noconv@?$codecvt@GDU_Mbstatet@@@std@@MEBA_NXZ) Export(698, ?do_always_noconv@?$codecvt@_SDU_Mbstatet@@@std@@MEBA_NXZ) Export(699, ?do_always_noconv@?$codecvt@_UDU_Mbstatet@@@std@@MEBA_NXZ) 
Export(700, ?do_always_noconv@?$codecvt@_WDU_Mbstatet@@@std@@MEBA_NXZ) Export(701, ?do_always_noconv@codecvt_base@std@@MEBA_NXZ) Export(702, ?do_date_order@?$time_get@DV?$istreambuf_iterator@DU?$char_traits@D@std@@@std@@@std@@MEBA?AW4dateorder@time_base@2@XZ) Export(703, ?do_date_order@?$time_get@GV?$istreambuf_iterator@GU?$char_traits@G@std@@@std@@@std@@MEBA?AW4dateorder@time_base@2@XZ) Export(704, ?do_date_order@?$time_get@_WV?$istreambuf_iterator@_WU?$char_traits@_W@std@@@std@@@std@@MEBA?AW4dateorder@time_base@2@XZ) Export(705, ?do_encoding@?$codecvt@GDU_Mbstatet@@@std@@MEBAHXZ) Export(706, ?do_encoding@?$codecvt@_SDU_Mbstatet@@@std@@MEBAHXZ) Export(707, ?do_encoding@?$codecvt@_UDU_Mbstatet@@@std@@MEBAHXZ) Export(708, ?do_encoding@?$codecvt@_WDU_Mbstatet@@@std@@MEBAHXZ) Export(709, ?do_encoding@codecvt_base@std@@MEBAHXZ) Export(710, ?do_get@?$num_get@DV?$istreambuf_iterator@DU?$char_traits@D@std@@@std@@@std@@MEBA?AV?$istreambuf_iterator@DU?$char_traits@D@std@@@2@V32@0AEAVios_base@2@AEAHAEAG@Z) Export(711, ?do_get@?$num_get@DV?$istreambuf_iterator@DU?$char_traits@D@std@@@std@@@std@@MEBA?AV?$istreambuf_iterator@DU?$char_traits@D@std@@@2@V32@0AEAVios_base@2@AEAHAEAI@Z) Export(712, ?do_get@?$num_get@DV?$istreambuf_iterator@DU?$char_traits@D@std@@@std@@@std@@MEBA?AV?$istreambuf_iterator@DU?$char_traits@D@std@@@2@V32@0AEAVios_base@2@AEAHAEAJ@Z) Export(713, ?do_get@?$num_get@DV?$istreambuf_iterator@DU?$char_traits@D@std@@@std@@@std@@MEBA?AV?$istreambuf_iterator@DU?$char_traits@D@std@@@2@V32@0AEAVios_base@2@AEAHAEAK@Z) Export(714, ?do_get@?$num_get@DV?$istreambuf_iterator@DU?$char_traits@D@std@@@std@@@std@@MEBA?AV?$istreambuf_iterator@DU?$char_traits@D@std@@@2@V32@0AEAVios_base@2@AEAHAEAM@Z) Export(715, ?do_get@?$num_get@DV?$istreambuf_iterator@DU?$char_traits@D@std@@@std@@@std@@MEBA?AV?$istreambuf_iterator@DU?$char_traits@D@std@@@2@V32@0AEAVios_base@2@AEAHAEAN@Z) Export(716, ?do_get@?$num_get@DV?$istreambuf_iterator@DU?$char_traits@D@std@@@std@@@std@@MEBA?AV?$istreambuf_iterator@DU?$char_traits@D@std@@@2@V32@0AEAVios_base@2@AEAHAEAO@Z) Export(717, ?do_get@?$num_get@DV?$istreambuf_iterator@DU?$char_traits@D@std@@@std@@@std@@MEBA?AV?$istreambuf_iterator@DU?$char_traits@D@std@@@2@V32@0AEAVios_base@2@AEAHAEAPEAX@Z) Export(718, ?do_get@?$num_get@DV?$istreambuf_iterator@DU?$char_traits@D@std@@@std@@@std@@MEBA?AV?$istreambuf_iterator@DU?$char_traits@D@std@@@2@V32@0AEAVios_base@2@AEAHAEA_J@Z) Export(719, ?do_get@?$num_get@DV?$istreambuf_iterator@DU?$char_traits@D@std@@@std@@@std@@MEBA?AV?$istreambuf_iterator@DU?$char_traits@D@std@@@2@V32@0AEAVios_base@2@AEAHAEA_K@Z) Export(720, ?do_get@?$num_get@DV?$istreambuf_iterator@DU?$char_traits@D@std@@@std@@@std@@MEBA?AV?$istreambuf_iterator@DU?$char_traits@D@std@@@2@V32@0AEAVios_base@2@AEAHAEA_N@Z) Export(721, ?do_get@?$num_get@GV?$istreambuf_iterator@GU?$char_traits@G@std@@@std@@@std@@MEBA?AV?$istreambuf_iterator@GU?$char_traits@G@std@@@2@V32@0AEAVios_base@2@AEAHAEAG@Z) Export(722, ?do_get@?$num_get@GV?$istreambuf_iterator@GU?$char_traits@G@std@@@std@@@std@@MEBA?AV?$istreambuf_iterator@GU?$char_traits@G@std@@@2@V32@0AEAVios_base@2@AEAHAEAI@Z) Export(723, ?do_get@?$num_get@GV?$istreambuf_iterator@GU?$char_traits@G@std@@@std@@@std@@MEBA?AV?$istreambuf_iterator@GU?$char_traits@G@std@@@2@V32@0AEAVios_base@2@AEAHAEAJ@Z) Export(724, ?do_get@?$num_get@GV?$istreambuf_iterator@GU?$char_traits@G@std@@@std@@@std@@MEBA?AV?$istreambuf_iterator@GU?$char_traits@G@std@@@2@V32@0AEAVios_base@2@AEAHAEAK@Z) Export(725, ?do_get@?$num_get@GV?$istreambuf_iterator@GU?$char_traits@G@std@@@std@@@std@@MEBA?AV?$istreambuf_iterator@GU?$char_traits@G@std@@@2@V32@0AEAVios_base@2@AEAHAEAM@Z) Export(726, ?do_get@?$num_get@GV?$istreambuf_iterator@GU?$char_traits@G@std@@@std@@@std@@MEBA?AV?$istreambuf_iterator@GU?$char_traits@G@std@@@2@V32@0AEAVios_base@2@AEAHAEAN@Z) Export(727, ?do_get@?$num_get@GV?$istreambuf_iterator@GU?$char_traits@G@std@@@std@@@std@@MEBA?AV?$istreambuf_iterator@GU?$char_traits@G@std@@@2@V32@0AEAVios_base@2@AEAHAEAO@Z) Export(728, ?do_get@?$num_get@GV?$istreambuf_iterator@GU?$char_traits@G@std@@@std@@@std@@MEBA?AV?$istreambuf_iterator@GU?$char_traits@G@std@@@2@V32@0AEAVios_base@2@AEAHAEAPEAX@Z) Export(729, ?do_get@?$num_get@GV?$istreambuf_iterator@GU?$char_traits@G@std@@@std@@@std@@MEBA?AV?$istreambuf_iterator@GU?$char_traits@G@std@@@2@V32@0AEAVios_base@2@AEAHAEA_J@Z) Export(730, ?do_get@?$num_get@GV?$istreambuf_iterator@GU?$char_traits@G@std@@@std@@@std@@MEBA?AV?$istreambuf_iterator@GU?$char_traits@G@std@@@2@V32@0AEAVios_base@2@AEAHAEA_K@Z) Export(731, ?do_get@?$num_get@GV?$istreambuf_iterator@GU?$char_traits@G@std@@@std@@@std@@MEBA?AV?$istreambuf_iterator@GU?$char_traits@G@std@@@2@V32@0AEAVios_base@2@AEAHAEA_N@Z) Export(732, ?do_get@?$num_get@_WV?$istreambuf_iterator@_WU?$char_traits@_W@std@@@std@@@std@@MEBA?AV?$istreambuf_iterator@_WU?$char_traits@_W@std@@@2@V32@0AEAVios_base@2@AEAHAEAG@Z) Export(733, ?do_get@?$num_get@_WV?$istreambuf_iterator@_WU?$char_traits@_W@std@@@std@@@std@@MEBA?AV?$istreambuf_iterator@_WU?$char_traits@_W@std@@@2@V32@0AEAVios_base@2@AEAHAEAI@Z) Export(734, ?do_get@?$num_get@_WV?$istreambuf_iterator@_WU?$char_traits@_W@std@@@std@@@std@@MEBA?AV?$istreambuf_iterator@_WU?$char_traits@_W@std@@@2@V32@0AEAVios_base@2@AEAHAEAJ@Z) Export(735, ?do_get@?$num_get@_WV?$istreambuf_iterator@_WU?$char_traits@_W@std@@@std@@@std@@MEBA?AV?$istreambuf_iterator@_WU?$char_traits@_W@std@@@2@V32@0AEAVios_base@2@AEAHAEAK@Z) Export(736, ?do_get@?$num_get@_WV?$istreambuf_iterator@_WU?$char_traits@_W@std@@@std@@@std@@MEBA?AV?$istreambuf_iterator@_WU?$char_traits@_W@std@@@2@V32@0AEAVios_base@2@AEAHAEAM@Z) Export(737, ?do_get@?$num_get@_WV?$istreambuf_iterator@_WU?$char_traits@_W@std@@@std@@@std@@MEBA?AV?$istreambuf_iterator@_WU?$char_traits@_W@std@@@2@V32@0AEAVios_base@2@AEAHAEAN@Z) Export(738, ?do_get@?$num_get@_WV?$istreambuf_iterator@_WU?$char_traits@_W@std@@@std@@@std@@MEBA?AV?$istreambuf_iterator@_WU?$char_traits@_W@std@@@2@V32@0AEAVios_base@2@AEAHAEAO@Z) Export(739, ?do_get@?$num_get@_WV?$istreambuf_iterator@_WU?$char_traits@_W@std@@@std@@@std@@MEBA?AV?$istreambuf_iterator@_WU?$char_traits@_W@std@@@2@V32@0AEAVios_base@2@AEAHAEAPEAX@Z) Export(740, ?do_get@?$num_get@_WV?$istreambuf_iterator@_WU?$char_traits@_W@std@@@std@@@std@@MEBA?AV?$istreambuf_iterator@_WU?$char_traits@_W@std@@@2@V32@0AEAVios_base@2@AEAHAEA_J@Z) Export(741, ?do_get@?$num_get@_WV?$istreambuf_iterator@_WU?$char_traits@_W@std@@@std@@@std@@MEBA?AV?$istreambuf_iterator@_WU?$char_traits@_W@std@@@2@V32@0AEAVios_base@2@AEAHAEA_K@Z) Export(742, ?do_get@?$num_get@_WV?$istreambuf_iterator@_WU?$char_traits@_W@std@@@std@@@std@@MEBA?AV?$istreambuf_iterator@_WU?$char_traits@_W@std@@@2@V32@0AEAVios_base@2@AEAHAEA_N@Z) Export(743, ?do_get@?$time_get@DV?$istreambuf_iterator@DU?$char_traits@D@std@@@std@@@std@@MEBA?AV?$istreambuf_iterator@DU?$char_traits@D@std@@@2@V32@0AEAVios_base@2@AEAHPEAUtm@@DD@Z) Export(744, ?do_get@?$time_get@GV?$istreambuf_iterator@GU?$char_traits@G@std@@@std@@@std@@MEBA?AV?$istreambuf_iterator@GU?$char_traits@G@std@@@2@V32@0AEAVios_base@2@AEAHPEAUtm@@DD@Z) Export(745, ?do_get@?$time_get@_WV?$istreambuf_iterator@_WU?$char_traits@_W@std@@@std@@@std@@MEBA?AV?$istreambuf_iterator@_WU?$char_traits@_W@std@@@2@V32@0AEAVios_base@2@AEAHPEAUtm@@DD@Z) Export(746, ?do_get_date@?$time_get@DV?$istreambuf_iterator@DU?$char_traits@D@std@@@std@@@std@@MEBA?AV?$istreambuf_iterator@DU?$char_traits@D@std@@@2@V32@0AEAVios_base@2@AEAHPEAUtm@@@Z) Export(747, ?do_get_date@?$time_get@GV?$istreambuf_iterator@GU?$char_traits@G@std@@@std@@@std@@MEBA?AV?$istreambuf_iterator@GU?$char_traits@G@std@@@2@V32@0AEAVios_base@2@AEAHPEAUtm@@@Z) Export(748, ?do_get_date@?$time_get@_WV?$istreambuf_iterator@_WU?$char_traits@_W@std@@@std@@@std@@MEBA?AV?$istreambuf_iterator@_WU?$char_traits@_W@std@@@2@V32@0AEAVios_base@2@AEAHPEAUtm@@@Z) Export(749, ?do_get_monthname@?$time_get@DV?$istreambuf_iterator@DU?$char_traits@D@std@@@std@@@std@@MEBA?AV?$istreambuf_iterator@DU?$char_traits@D@std@@@2@V32@0AEAVios_base@2@AEAHPEAUtm@@@Z) 
Export(750, ?do_get_monthname@?$time_get@GV?$istreambuf_iterator@GU?$char_traits@G@std@@@std@@@std@@MEBA?AV?$istreambuf_iterator@GU?$char_traits@G@std@@@2@V32@0AEAVios_base@2@AEAHPEAUtm@@@Z) Export(751, ?do_get_monthname@?$time_get@_WV?$istreambuf_iterator@_WU?$char_traits@_W@std@@@std@@@std@@MEBA?AV?$istreambuf_iterator@_WU?$char_traits@_W@std@@@2@V32@0AEAVios_base@2@AEAHPEAUtm@@@Z) Export(752, ?do_get_time@?$time_get@DV?$istreambuf_iterator@DU?$char_traits@D@std@@@std@@@std@@MEBA?AV?$istreambuf_iterator@DU?$char_traits@D@std@@@2@V32@0AEAVios_base@2@AEAHPEAUtm@@@Z) Export(753, ?do_get_time@?$time_get@GV?$istreambuf_iterator@GU?$char_traits@G@std@@@std@@@std@@MEBA?AV?$istreambuf_iterator@GU?$char_traits@G@std@@@2@V32@0AEAVios_base@2@AEAHPEAUtm@@@Z) Export(754, ?do_get_time@?$time_get@_WV?$istreambuf_iterator@_WU?$char_traits@_W@std@@@std@@@std@@MEBA?AV?$istreambuf_iterator@_WU?$char_traits@_W@std@@@2@V32@0AEAVios_base@2@AEAHPEAUtm@@@Z) Export(755, ?do_get_weekday@?$time_get@DV?$istreambuf_iterator@DU?$char_traits@D@std@@@std@@@std@@MEBA?AV?$istreambuf_iterator@DU?$char_traits@D@std@@@2@V32@0AEAVios_base@2@AEAHPEAUtm@@@Z) Export(756, ?do_get_weekday@?$time_get@GV?$istreambuf_iterator@GU?$char_traits@G@std@@@std@@@std@@MEBA?AV?$istreambuf_iterator@GU?$char_traits@G@std@@@2@V32@0AEAVios_base@2@AEAHPEAUtm@@@Z) Export(757, ?do_get_weekday@?$time_get@_WV?$istreambuf_iterator@_WU?$char_traits@_W@std@@@std@@@std@@MEBA?AV?$istreambuf_iterator@_WU?$char_traits@_W@std@@@2@V32@0AEAVios_base@2@AEAHPEAUtm@@@Z) Export(758, ?do_get_year@?$time_get@DV?$istreambuf_iterator@DU?$char_traits@D@std@@@std@@@std@@MEBA?AV?$istreambuf_iterator@DU?$char_traits@D@std@@@2@V32@0AEAVios_base@2@AEAHPEAUtm@@@Z) Export(759, ?do_get_year@?$time_get@GV?$istreambuf_iterator@GU?$char_traits@G@std@@@std@@@std@@MEBA?AV?$istreambuf_iterator@GU?$char_traits@G@std@@@2@V32@0AEAVios_base@2@AEAHPEAUtm@@@Z) Export(760, ?do_get_year@?$time_get@_WV?$istreambuf_iterator@_WU?$char_traits@_W@std@@@std@@@std@@MEBA?AV?$istreambuf_iterator@_WU?$char_traits@_W@std@@@2@V32@0AEAVios_base@2@AEAHPEAUtm@@@Z) Export(761, ?do_in@?$codecvt@DDU_Mbstatet@@@std@@MEBAHAEAU_Mbstatet@@PEBD1AEAPEBDPEAD3AEAPEAD@Z) Export(762, ?do_in@?$codecvt@GDU_Mbstatet@@@std@@MEBAHAEAU_Mbstatet@@PEBD1AEAPEBDPEAG3AEAPEAG@Z) Export(763, ?do_in@?$codecvt@_SDU_Mbstatet@@@std@@MEBAHAEAU_Mbstatet@@PEBD1AEAPEBDPEA_S3AEAPEA_S@Z) Export(764, ?do_in@?$codecvt@_UDU_Mbstatet@@@std@@MEBAHAEAU_Mbstatet@@PEBD1AEAPEBDPEA_U3AEAPEA_U@Z) Export(765, ?do_in@?$codecvt@_WDU_Mbstatet@@@std@@MEBAHAEAU_Mbstatet@@PEBD1AEAPEBDPEA_W3AEAPEA_W@Z) Export(766, ?do_is@?$ctype@G@std@@MEBAPEBGPEBG0PEAF@Z) Export(767, ?do_is@?$ctype@G@std@@MEBA_NFG@Z) Export(768, ?do_is@?$ctype@_W@std@@MEBAPEB_WPEB_W0PEAF@Z) Export(769, ?do_is@?$ctype@_W@std@@MEBA_NF_W@Z) Export(770, ?do_length@?$codecvt@DDU_Mbstatet@@@std@@MEBAHAEAU_Mbstatet@@PEBD1_K@Z) Export(771, ?do_length@?$codecvt@GDU_Mbstatet@@@std@@MEBAHAEAU_Mbstatet@@PEBD1_K@Z) Export(772, ?do_length@?$codecvt@_SDU_Mbstatet@@@std@@MEBAHAEAU_Mbstatet@@PEBD1_K@Z) Export(773, ?do_length@?$codecvt@_UDU_Mbstatet@@@std@@MEBAHAEAU_Mbstatet@@PEBD1_K@Z) Export(774, ?do_length@?$codecvt@_WDU_Mbstatet@@@std@@MEBAHAEAU_Mbstatet@@PEBD1_K@Z) Export(775, ?do_max_length@?$codecvt@GDU_Mbstatet@@@std@@MEBAHXZ) Export(776, ?do_max_length@?$codecvt@_SDU_Mbstatet@@@std@@MEBAHXZ) Export(777, ?do_max_length@?$codecvt@_UDU_Mbstatet@@@std@@MEBAHXZ) Export(778, ?do_max_length@?$codecvt@_WDU_Mbstatet@@@std@@MEBAHXZ) Export(779, ?do_max_length@codecvt_base@std@@MEBAHXZ) Export(780, ?do_narrow@?$ctype@D@std@@MEBADDD@Z) Export(781, ?do_narrow@?$ctype@D@std@@MEBAPEBDPEBD0DPEAD@Z) Export(782, ?do_narrow@?$ctype@G@std@@MEBADGD@Z) Export(783, ?do_narrow@?$ctype@G@std@@MEBAPEBGPEBG0DPEAD@Z) Export(784, ?do_narrow@?$ctype@_W@std@@MEBAD_WD@Z) Export(785, ?do_narrow@?$ctype@_W@std@@MEBAPEB_WPEB_W0DPEAD@Z) Export(786, ?do_out@?$codecvt@DDU_Mbstatet@@@std@@MEBAHAEAU_Mbstatet@@PEBD1AEAPEBDPEAD3AEAPEAD@Z) Export(787, ?do_out@?$codecvt@GDU_Mbstatet@@@std@@MEBAHAEAU_Mbstatet@@PEBG1AEAPEBGPEAD3AEAPEAD@Z) Export(788, ?do_out@?$codecvt@_SDU_Mbstatet@@@std@@MEBAHAEAU_Mbstatet@@PEB_S1AEAPEB_SPEAD3AEAPEAD@Z) Export(789, ?do_out@?$codecvt@_UDU_Mbstatet@@@std@@MEBAHAEAU_Mbstatet@@PEB_U1AEAPEB_UPEAD3AEAPEAD@Z) Export(790, ?do_out@?$codecvt@_WDU_Mbstatet@@@std@@MEBAHAEAU_Mbstatet@@PEB_W1AEAPEB_WPEAD3AEAPEAD@Z) Export(791, ?do_put@?$num_put@DV?$ostreambuf_iterator@DU?$char_traits@D@std@@@std@@@std@@MEBA?AV?$ostreambuf_iterator@DU?$char_traits@D@std@@@2@V32@AEAVios_base@2@DJ@Z) Export(792, ?do_put@?$num_put@DV?$ostreambuf_iterator@DU?$char_traits@D@std@@@std@@@std@@MEBA?AV?$ostreambuf_iterator@DU?$char_traits@D@std@@@2@V32@AEAVios_base@2@DK@Z) Export(793, ?do_put@?$num_put@DV?$ostreambuf_iterator@DU?$char_traits@D@std@@@std@@@std@@MEBA?AV?$ostreambuf_iterator@DU?$char_traits@D@std@@@2@V32@AEAVios_base@2@DN@Z) Export(794, ?do_put@?$num_put@DV?$ostreambuf_iterator@DU?$char_traits@D@std@@@std@@@std@@MEBA?AV?$ostreambuf_iterator@DU?$char_traits@D@std@@@2@V32@AEAVios_base@2@DO@Z) Export(795, ?do_put@?$num_put@DV?$ostreambuf_iterator@DU?$char_traits@D@std@@@std@@@std@@MEBA?AV?$ostreambuf_iterator@DU?$char_traits@D@std@@@2@V32@AEAVios_base@2@DPEBX@Z) Export(796, ?do_put@?$num_put@DV?$ostreambuf_iterator@DU?$char_traits@D@std@@@std@@@std@@MEBA?AV?$ostreambuf_iterator@DU?$char_traits@D@std@@@2@V32@AEAVios_base@2@D_J@Z) Export(797, ?do_put@?$num_put@DV?$ostreambuf_iterator@DU?$char_traits@D@std@@@std@@@std@@MEBA?AV?$ostreambuf_iterator@DU?$char_traits@D@std@@@2@V32@AEAVios_base@2@D_K@Z) Export(798, ?do_put@?$num_put@DV?$ostreambuf_iterator@DU?$char_traits@D@std@@@std@@@std@@MEBA?AV?$ostreambuf_iterator@DU?$char_traits@D@std@@@2@V32@AEAVios_base@2@D_N@Z) Export(799, ?do_put@?$num_put@GV?$ostreambuf_iterator@GU?$char_traits@G@std@@@std@@@std@@MEBA?AV?$ostreambuf_iterator@GU?$char_traits@G@std@@@2@V32@AEAVios_base@2@GJ@Z) 
Export(800, ?do_put@?$num_put@GV?$ostreambuf_iterator@GU?$char_traits@G@std@@@std@@@std@@MEBA?AV?$ostreambuf_iterator@GU?$char_traits@G@std@@@2@V32@AEAVios_base@2@GK@Z) Export(801, ?do_put@?$num_put@GV?$ostreambuf_iterator@GU?$char_traits@G@std@@@std@@@std@@MEBA?AV?$ostreambuf_iterator@GU?$char_traits@G@std@@@2@V32@AEAVios_base@2@GN@Z) Export(802, ?do_put@?$num_put@GV?$ostreambuf_iterator@GU?$char_traits@G@std@@@std@@@std@@MEBA?AV?$ostreambuf_iterator@GU?$char_traits@G@std@@@2@V32@AEAVios_base@2@GO@Z) Export(803, ?do_put@?$num_put@GV?$ostreambuf_iterator@GU?$char_traits@G@std@@@std@@@std@@MEBA?AV?$ostreambuf_iterator@GU?$char_traits@G@std@@@2@V32@AEAVios_base@2@GPEBX@Z) Export(804, ?do_put@?$num_put@GV?$ostreambuf_iterator@GU?$char_traits@G@std@@@std@@@std@@MEBA?AV?$ostreambuf_iterator@GU?$char_traits@G@std@@@2@V32@AEAVios_base@2@G_J@Z) Export(805, ?do_put@?$num_put@GV?$ostreambuf_iterator@GU?$char_traits@G@std@@@std@@@std@@MEBA?AV?$ostreambuf_iterator@GU?$char_traits@G@std@@@2@V32@AEAVios_base@2@G_K@Z) Export(806, ?do_put@?$num_put@GV?$ostreambuf_iterator@GU?$char_traits@G@std@@@std@@@std@@MEBA?AV?$ostreambuf_iterator@GU?$char_traits@G@std@@@2@V32@AEAVios_base@2@G_N@Z) Export(807, ?do_put@?$num_put@_WV?$ostreambuf_iterator@_WU?$char_traits@_W@std@@@std@@@std@@MEBA?AV?$ostreambuf_iterator@_WU?$char_traits@_W@std@@@2@V32@AEAVios_base@2@_WJ@Z) Export(808, ?do_put@?$num_put@_WV?$ostreambuf_iterator@_WU?$char_traits@_W@std@@@std@@@std@@MEBA?AV?$ostreambuf_iterator@_WU?$char_traits@_W@std@@@2@V32@AEAVios_base@2@_WK@Z) Export(809, ?do_put@?$num_put@_WV?$ostreambuf_iterator@_WU?$char_traits@_W@std@@@std@@@std@@MEBA?AV?$ostreambuf_iterator@_WU?$char_traits@_W@std@@@2@V32@AEAVios_base@2@_WN@Z) Export(810, ?do_put@?$num_put@_WV?$ostreambuf_iterator@_WU?$char_traits@_W@std@@@std@@@std@@MEBA?AV?$ostreambuf_iterator@_WU?$char_traits@_W@std@@@2@V32@AEAVios_base@2@_WO@Z) Export(811, ?do_put@?$num_put@_WV?$ostreambuf_iterator@_WU?$char_traits@_W@std@@@std@@@std@@MEBA?AV?$ostreambuf_iterator@_WU?$char_traits@_W@std@@@2@V32@AEAVios_base@2@_WPEBX@Z) Export(812, ?do_put@?$num_put@_WV?$ostreambuf_iterator@_WU?$char_traits@_W@std@@@std@@@std@@MEBA?AV?$ostreambuf_iterator@_WU?$char_traits@_W@std@@@2@V32@AEAVios_base@2@_W_J@Z) Export(813, ?do_put@?$num_put@_WV?$ostreambuf_iterator@_WU?$char_traits@_W@std@@@std@@@std@@MEBA?AV?$ostreambuf_iterator@_WU?$char_traits@_W@std@@@2@V32@AEAVios_base@2@_W_K@Z) Export(814, ?do_put@?$num_put@_WV?$ostreambuf_iterator@_WU?$char_traits@_W@std@@@std@@@std@@MEBA?AV?$ostreambuf_iterator@_WU?$char_traits@_W@std@@@2@V32@AEAVios_base@2@_W_N@Z) Export(815, ?do_put@?$time_put@DV?$ostreambuf_iterator@DU?$char_traits@D@std@@@std@@@std@@MEBA?AV?$ostreambuf_iterator@DU?$char_traits@D@std@@@2@V32@AEAVios_base@2@DPEBUtm@@DD@Z) Export(816, ?do_put@?$time_put@GV?$ostreambuf_iterator@GU?$char_traits@G@std@@@std@@@std@@MEBA?AV?$ostreambuf_iterator@GU?$char_traits@G@std@@@2@V32@AEAVios_base@2@GPEBUtm@@DD@Z) Export(817, ?do_put@?$time_put@_WV?$ostreambuf_iterator@_WU?$char_traits@_W@std@@@std@@@std@@MEBA?AV?$ostreambuf_iterator@_WU?$char_traits@_W@std@@@2@V32@AEAVios_base@2@_WPEBUtm@@DD@Z) Export(818, ?do_scan_is@?$ctype@G@std@@MEBAPEBGFPEBG0@Z) Export(819, ?do_scan_is@?$ctype@_W@std@@MEBAPEB_WFPEB_W0@Z) Export(820, ?do_scan_not@?$ctype@G@std@@MEBAPEBGFPEBG0@Z) Export(821, ?do_scan_not@?$ctype@_W@std@@MEBAPEB_WFPEB_W0@Z) Export(822, ?do_tolower@?$ctype@D@std@@MEBADD@Z) Export(823, ?do_tolower@?$ctype@D@std@@MEBAPEBDPEADPEBD@Z) Export(824, ?do_tolower@?$ctype@G@std@@MEBAGG@Z) Export(825, ?do_tolower@?$ctype@G@std@@MEBAPEBGPEAGPEBG@Z) Export(826, ?do_tolower@?$ctype@_W@std@@MEBAPEB_WPEA_WPEB_W@Z) Export(827, ?do_tolower@?$ctype@_W@std@@MEBA_W_W@Z) Export(828, ?do_toupper@?$ctype@D@std@@MEBADD@Z) Export(829, ?do_toupper@?$ctype@D@std@@MEBAPEBDPEADPEBD@Z) Export(830, ?do_toupper@?$ctype@G@std@@MEBAGG@Z) Export(831, ?do_toupper@?$ctype@G@std@@MEBAPEBGPEAGPEBG@Z) Export(832, ?do_toupper@?$ctype@_W@std@@MEBAPEB_WPEA_WPEB_W@Z) Export(833, ?do_toupper@?$ctype@_W@std@@MEBA_W_W@Z) Export(834, ?do_unshift@?$codecvt@DDU_Mbstatet@@@std@@MEBAHAEAU_Mbstatet@@PEAD1AEAPEAD@Z) Export(835, ?do_unshift@?$codecvt@GDU_Mbstatet@@@std@@MEBAHAEAU_Mbstatet@@PEAD1AEAPEAD@Z) Export(836, ?do_unshift@?$codecvt@_SDU_Mbstatet@@@std@@MEBAHAEAU_Mbstatet@@PEAD1AEAPEAD@Z) Export(837, ?do_unshift@?$codecvt@_UDU_Mbstatet@@@std@@MEBAHAEAU_Mbstatet@@PEAD1AEAPEAD@Z) Export(838, ?do_unshift@?$codecvt@_WDU_Mbstatet@@@std@@MEBAHAEAU_Mbstatet@@PEAD1AEAPEAD@Z) Export(839, ?do_widen@?$ctype@D@std@@MEBADD@Z) Export(840, ?do_widen@?$ctype@D@std@@MEBAPEBDPEBD0PEAD@Z) Export(841, ?do_widen@?$ctype@G@std@@MEBAGD@Z) Export(842, ?do_widen@?$ctype@G@std@@MEBAPEBDPEBD0PEAG@Z) Export(843, ?do_widen@?$ctype@_W@std@@MEBAPEBDPEBD0PEA_W@Z) Export(844, ?do_widen@?$ctype@_W@std@@MEBA_WD@Z) Export(845, ?eback@?$basic_streambuf@DU?$char_traits@D@std@@@std@@IEBAPEADXZ) Export(846, ?eback@?$basic_streambuf@GU?$char_traits@G@std@@@std@@IEBAPEAGXZ) Export(847, ?eback@?$basic_streambuf@_WU?$char_traits@_W@std@@@std@@IEBAPEA_WXZ) Export(848, ?egptr@?$basic_streambuf@DU?$char_traits@D@std@@@std@@IEBAPEADXZ) Export(849, ?egptr@?$basic_streambuf@GU?$char_traits@G@std@@@std@@IEBAPEAGXZ) 
Export(850, ?egptr@?$basic_streambuf@_WU?$char_traits@_W@std@@@std@@IEBAPEA_WXZ) Export(851, ?empty@?$_Yarn@D@std@@QEBA_NXZ) Export(852, ?empty@?$_Yarn@G@std@@QEBA_NXZ) Export(853, ?empty@?$_Yarn@_W@std@@QEBA_NXZ) Export(854, ?empty@locale@std@@SA?AV12@XZ) Export(855, ?encoding@codecvt_base@std@@QEBAHXZ) Export(856, ?eof@ios_base@std@@QEBA_NXZ) Export(857, ?epptr@?$basic_streambuf@DU?$char_traits@D@std@@@std@@IEBAPEADXZ) Export(858, ?epptr@?$basic_streambuf@GU?$char_traits@G@std@@@std@@IEBAPEAGXZ) Export(859, ?epptr@?$basic_streambuf@_WU?$char_traits@_W@std@@@std@@IEBAPEA_WXZ) Export(860, ?exceptions@ios_base@std@@QEAAXH@Z) Export(861, ?exceptions@ios_base@std@@QEAAXI@Z) Export(862, ?exceptions@ios_base@std@@QEBAHXZ) Export(863, ?fail@ios_base@std@@QEBA_NXZ) Export(864, ?fill@?$basic_ios@DU?$char_traits@D@std@@@std@@QEAADD@Z) Export(865, ?fill@?$basic_ios@DU?$char_traits@D@std@@@std@@QEBADXZ) Export(866, ?fill@?$basic_ios@GU?$char_traits@G@std@@@std@@QEAAGG@Z) Export(867, ?fill@?$basic_ios@GU?$char_traits@G@std@@@std@@QEBAGXZ) Export(868, ?fill@?$basic_ios@_WU?$char_traits@_W@std@@@std@@QEAA_W_W@Z) Export(869, ?fill@?$basic_ios@_WU?$char_traits@_W@std@@@std@@QEBA_WXZ) Export(870, ?flags@ios_base@std@@QEAAHH@Z) Export(871, ?flags@ios_base@std@@QEBAHXZ) Export(872, ?flush@?$basic_ostream@DU?$char_traits@D@std@@@std@@QEAAAEAV12@XZ) Export(873, ?flush@?$basic_ostream@GU?$char_traits@G@std@@@std@@QEAAAEAV12@XZ) Export(874, ?flush@?$basic_ostream@_WU?$char_traits@_W@std@@@std@@QEAAAEAV12@XZ) Export(875, ?gbump@?$basic_streambuf@DU?$char_traits@D@std@@@std@@IEAAXH@Z) Export(876, ?gbump@?$basic_streambuf@GU?$char_traits@G@std@@@std@@IEAAXH@Z) Export(877, ?gbump@?$basic_streambuf@_WU?$char_traits@_W@std@@@std@@IEAAXH@Z) Export(878, ?gcount@?$basic_istream@DU?$char_traits@D@std@@@std@@QEBA_JXZ) Export(879, ?gcount@?$basic_istream@GU?$char_traits@G@std@@@std@@QEBA_JXZ) Export(880, ?gcount@?$basic_istream@_WU?$char_traits@_W@std@@@std@@QEBA_JXZ) Export(881, ?get@?$basic_istream@DU?$char_traits@D@std@@@std@@QEAAAEAV12@AEAD@Z) Export(882, ?get@?$basic_istream@DU?$char_traits@D@std@@@std@@QEAAAEAV12@AEAV?$basic_streambuf@DU?$char_traits@D@std@@@2@@Z) Export(883, ?get@?$basic_istream@DU?$char_traits@D@std@@@std@@QEAAAEAV12@AEAV?$basic_streambuf@DU?$char_traits@D@std@@@2@D@Z) Export(884, ?get@?$basic_istream@DU?$char_traits@D@std@@@std@@QEAAAEAV12@PEAD_J@Z) Export(885, ?get@?$basic_istream@DU?$char_traits@D@std@@@std@@QEAAAEAV12@PEAD_JD@Z) Export(886, ?get@?$basic_istream@DU?$char_traits@D@std@@@std@@QEAAHXZ) Export(887, ?get@?$basic_istream@GU?$char_traits@G@std@@@std@@QEAAAEAV12@AEAG@Z) Export(888, ?get@?$basic_istream@GU?$char_traits@G@std@@@std@@QEAAAEAV12@AEAV?$basic_streambuf@GU?$char_traits@G@std@@@2@@Z) Export(889, ?get@?$basic_istream@GU?$char_traits@G@std@@@std@@QEAAAEAV12@AEAV?$basic_streambuf@GU?$char_traits@G@std@@@2@G@Z) Export(890, ?get@?$basic_istream@GU?$char_traits@G@std@@@std@@QEAAAEAV12@PEAG_J@Z) Export(891, ?get@?$basic_istream@GU?$char_traits@G@std@@@std@@QEAAAEAV12@PEAG_JG@Z) Export(892, ?get@?$basic_istream@GU?$char_traits@G@std@@@std@@QEAAGXZ) Export(893, ?get@?$basic_istream@_WU?$char_traits@_W@std@@@std@@QEAAAEAV12@AEAV?$basic_streambuf@_WU?$char_traits@_W@std@@@2@@Z) Export(894, ?get@?$basic_istream@_WU?$char_traits@_W@std@@@std@@QEAAAEAV12@AEAV?$basic_streambuf@_WU?$char_traits@_W@std@@@2@_W@Z) Export(895, ?get@?$basic_istream@_WU?$char_traits@_W@std@@@std@@QEAAAEAV12@AEA_W@Z) Export(896, ?get@?$basic_istream@_WU?$char_traits@_W@std@@@std@@QEAAAEAV12@PEA_W_J@Z) Export(897, ?get@?$basic_istream@_WU?$char_traits@_W@std@@@std@@QEAAAEAV12@PEA_W_J_W@Z) Export(898, ?get@?$basic_istream@_WU?$char_traits@_W@std@@@std@@QEAAGXZ) Export(899, ?get@?$num_get@DV?$istreambuf_iterator@DU?$char_traits@D@std@@@std@@@std@@QEBA?AV?$istreambuf_iterator@DU?$char_traits@D@std@@@2@V32@0AEAVios_base@2@AEAHAEAG@Z) 
Export(900, ?get@?$num_get@DV?$istreambuf_iterator@DU?$char_traits@D@std@@@std@@@std@@QEBA?AV?$istreambuf_iterator@DU?$char_traits@D@std@@@2@V32@0AEAVios_base@2@AEAHAEAI@Z) Export(901, ?get@?$num_get@DV?$istreambuf_iterator@DU?$char_traits@D@std@@@std@@@std@@QEBA?AV?$istreambuf_iterator@DU?$char_traits@D@std@@@2@V32@0AEAVios_base@2@AEAHAEAJ@Z) Export(902, ?get@?$num_get@DV?$istreambuf_iterator@DU?$char_traits@D@std@@@std@@@std@@QEBA?AV?$istreambuf_iterator@DU?$char_traits@D@std@@@2@V32@0AEAVios_base@2@AEAHAEAK@Z) Export(903, ?get@?$num_get@DV?$istreambuf_iterator@DU?$char_traits@D@std@@@std@@@std@@QEBA?AV?$istreambuf_iterator@DU?$char_traits@D@std@@@2@V32@0AEAVios_base@2@AEAHAEAM@Z) Export(904, ?get@?$num_get@DV?$istreambuf_iterator@DU?$char_traits@D@std@@@std@@@std@@QEBA?AV?$istreambuf_iterator@DU?$char_traits@D@std@@@2@V32@0AEAVios_base@2@AEAHAEAN@Z) Export(905, ?get@?$num_get@DV?$istreambuf_iterator@DU?$char_traits@D@std@@@std@@@std@@QEBA?AV?$istreambuf_iterator@DU?$char_traits@D@std@@@2@V32@0AEAVios_base@2@AEAHAEAO@Z) Export(906, ?get@?$num_get@DV?$istreambuf_iterator@DU?$char_traits@D@std@@@std@@@std@@QEBA?AV?$istreambuf_iterator@DU?$char_traits@D@std@@@2@V32@0AEAVios_base@2@AEAHAEAPEAX@Z) Export(907, ?get@?$num_get@DV?$istreambuf_iterator@DU?$char_traits@D@std@@@std@@@std@@QEBA?AV?$istreambuf_iterator@DU?$char_traits@D@std@@@2@V32@0AEAVios_base@2@AEAHAEA_J@Z) Export(908, ?get@?$num_get@DV?$istreambuf_iterator@DU?$char_traits@D@std@@@std@@@std@@QEBA?AV?$istreambuf_iterator@DU?$char_traits@D@std@@@2@V32@0AEAVios_base@2@AEAHAEA_K@Z) Export(909, ?get@?$num_get@DV?$istreambuf_iterator@DU?$char_traits@D@std@@@std@@@std@@QEBA?AV?$istreambuf_iterator@DU?$char_traits@D@std@@@2@V32@0AEAVios_base@2@AEAHAEA_N@Z) Export(910, ?get@?$num_get@GV?$istreambuf_iterator@GU?$char_traits@G@std@@@std@@@std@@QEBA?AV?$istreambuf_iterator@GU?$char_traits@G@std@@@2@V32@0AEAVios_base@2@AEAHAEAG@Z) Export(911, ?get@?$num_get@GV?$istreambuf_iterator@GU?$char_traits@G@std@@@std@@@std@@QEBA?AV?$istreambuf_iterator@GU?$char_traits@G@std@@@2@V32@0AEAVios_base@2@AEAHAEAI@Z) Export(912, ?get@?$num_get@GV?$istreambuf_iterator@GU?$char_traits@G@std@@@std@@@std@@QEBA?AV?$istreambuf_iterator@GU?$char_traits@G@std@@@2@V32@0AEAVios_base@2@AEAHAEAJ@Z) Export(913, ?get@?$num_get@GV?$istreambuf_iterator@GU?$char_traits@G@std@@@std@@@std@@QEBA?AV?$istreambuf_iterator@GU?$char_traits@G@std@@@2@V32@0AEAVios_base@2@AEAHAEAK@Z) Export(914, ?get@?$num_get@GV?$istreambuf_iterator@GU?$char_traits@G@std@@@std@@@std@@QEBA?AV?$istreambuf_iterator@GU?$char_traits@G@std@@@2@V32@0AEAVios_base@2@AEAHAEAM@Z) Export(915, ?get@?$num_get@GV?$istreambuf_iterator@GU?$char_traits@G@std@@@std@@@std@@QEBA?AV?$istreambuf_iterator@GU?$char_traits@G@std@@@2@V32@0AEAVios_base@2@AEAHAEAN@Z) Export(916, ?get@?$num_get@GV?$istreambuf_iterator@GU?$char_traits@G@std@@@std@@@std@@QEBA?AV?$istreambuf_iterator@GU?$char_traits@G@std@@@2@V32@0AEAVios_base@2@AEAHAEAO@Z) Export(917, ?get@?$num_get@GV?$istreambuf_iterator@GU?$char_traits@G@std@@@std@@@std@@QEBA?AV?$istreambuf_iterator@GU?$char_traits@G@std@@@2@V32@0AEAVios_base@2@AEAHAEAPEAX@Z) Export(918, ?get@?$num_get@GV?$istreambuf_iterator@GU?$char_traits@G@std@@@std@@@std@@QEBA?AV?$istreambuf_iterator@GU?$char_traits@G@std@@@2@V32@0AEAVios_base@2@AEAHAEA_J@Z) Export(919, ?get@?$num_get@GV?$istreambuf_iterator@GU?$char_traits@G@std@@@std@@@std@@QEBA?AV?$istreambuf_iterator@GU?$char_traits@G@std@@@2@V32@0AEAVios_base@2@AEAHAEA_K@Z) Export(920, ?get@?$num_get@GV?$istreambuf_iterator@GU?$char_traits@G@std@@@std@@@std@@QEBA?AV?$istreambuf_iterator@GU?$char_traits@G@std@@@2@V32@0AEAVios_base@2@AEAHAEA_N@Z) Export(921, ?get@?$num_get@_WV?$istreambuf_iterator@_WU?$char_traits@_W@std@@@std@@@std@@QEBA?AV?$istreambuf_iterator@_WU?$char_traits@_W@std@@@2@V32@0AEAVios_base@2@AEAHAEAG@Z) Export(922, ?get@?$num_get@_WV?$istreambuf_iterator@_WU?$char_traits@_W@std@@@std@@@std@@QEBA?AV?$istreambuf_iterator@_WU?$char_traits@_W@std@@@2@V32@0AEAVios_base@2@AEAHAEAI@Z) Export(923, ?get@?$num_get@_WV?$istreambuf_iterator@_WU?$char_traits@_W@std@@@std@@@std@@QEBA?AV?$istreambuf_iterator@_WU?$char_traits@_W@std@@@2@V32@0AEAVios_base@2@AEAHAEAJ@Z) Export(924, ?get@?$num_get@_WV?$istreambuf_iterator@_WU?$char_traits@_W@std@@@std@@@std@@QEBA?AV?$istreambuf_iterator@_WU?$char_traits@_W@std@@@2@V32@0AEAVios_base@2@AEAHAEAK@Z) Export(925, ?get@?$num_get@_WV?$istreambuf_iterator@_WU?$char_traits@_W@std@@@std@@@std@@QEBA?AV?$istreambuf_iterator@_WU?$char_traits@_W@std@@@2@V32@0AEAVios_base@2@AEAHAEAM@Z) Export(926, ?get@?$num_get@_WV?$istreambuf_iterator@_WU?$char_traits@_W@std@@@std@@@std@@QEBA?AV?$istreambuf_iterator@_WU?$char_traits@_W@std@@@2@V32@0AEAVios_base@2@AEAHAEAN@Z) Export(927, ?get@?$num_get@_WV?$istreambuf_iterator@_WU?$char_traits@_W@std@@@std@@@std@@QEBA?AV?$istreambuf_iterator@_WU?$char_traits@_W@std@@@2@V32@0AEAVios_base@2@AEAHAEAO@Z) Export(928, ?get@?$num_get@_WV?$istreambuf_iterator@_WU?$char_traits@_W@std@@@std@@@std@@QEBA?AV?$istreambuf_iterator@_WU?$char_traits@_W@std@@@2@V32@0AEAVios_base@2@AEAHAEAPEAX@Z) Export(929, ?get@?$num_get@_WV?$istreambuf_iterator@_WU?$char_traits@_W@std@@@std@@@std@@QEBA?AV?$istreambuf_iterator@_WU?$char_traits@_W@std@@@2@V32@0AEAVios_base@2@AEAHAEA_J@Z) Export(930, ?get@?$num_get@_WV?$istreambuf_iterator@_WU?$char_traits@_W@std@@@std@@@std@@QEBA?AV?$istreambuf_iterator@_WU?$char_traits@_W@std@@@2@V32@0AEAVios_base@2@AEAHAEA_K@Z) Export(931, ?get@?$num_get@_WV?$istreambuf_iterator@_WU?$char_traits@_W@std@@@std@@@std@@QEBA?AV?$istreambuf_iterator@_WU?$char_traits@_W@std@@@2@V32@0AEAVios_base@2@AEAHAEA_N@Z) Export(932, ?get@?$time_get@DV?$istreambuf_iterator@DU?$char_traits@D@std@@@std@@@std@@QEBA?AV?$istreambuf_iterator@DU?$char_traits@D@std@@@2@V32@0AEAVios_base@2@AEAHPEAUtm@@DD@Z) Export(933, ?get@?$time_get@DV?$istreambuf_iterator@DU?$char_traits@D@std@@@std@@@std@@QEBA?AV?$istreambuf_iterator@DU?$char_traits@D@std@@@2@V32@0AEAVios_base@2@AEAHPEAUtm@@PEBD4@Z) Export(934, ?get@?$time_get@GV?$istreambuf_iterator@GU?$char_traits@G@std@@@std@@@std@@QEBA?AV?$istreambuf_iterator@GU?$char_traits@G@std@@@2@V32@0AEAVios_base@2@AEAHPEAUtm@@DD@Z) Export(935, ?get@?$time_get@GV?$istreambuf_iterator@GU?$char_traits@G@std@@@std@@@std@@QEBA?AV?$istreambuf_iterator@GU?$char_traits@G@std@@@2@V32@0AEAVios_base@2@AEAHPEAUtm@@PEBG4@Z) Export(936, ?get@?$time_get@_WV?$istreambuf_iterator@_WU?$char_traits@_W@std@@@std@@@std@@QEBA?AV?$istreambuf_iterator@_WU?$char_traits@_W@std@@@2@V32@0AEAVios_base@2@AEAHPEAUtm@@DD@Z) Export(937, ?get@?$time_get@_WV?$istreambuf_iterator@_WU?$char_traits@_W@std@@@std@@@std@@QEBA?AV?$istreambuf_iterator@_WU?$char_traits@_W@std@@@2@V32@0AEAVios_base@2@AEAHPEAUtm@@PEB_W4@Z) Export(938, ?get_date@?$time_get@DV?$istreambuf_iterator@DU?$char_traits@D@std@@@std@@@std@@QEBA?AV?$istreambuf_iterator@DU?$char_traits@D@std@@@2@V32@0AEAVios_base@2@AEAHPEAUtm@@@Z) Export(939, ?get_date@?$time_get@GV?$istreambuf_iterator@GU?$char_traits@G@std@@@std@@@std@@QEBA?AV?$istreambuf_iterator@GU?$char_traits@G@std@@@2@V32@0AEAVios_base@2@AEAHPEAUtm@@@Z) Export(940, ?get_date@?$time_get@_WV?$istreambuf_iterator@_WU?$char_traits@_W@std@@@std@@@std@@QEBA?AV?$istreambuf_iterator@_WU?$char_traits@_W@std@@@2@V32@0AEAVios_base@2@AEAHPEAUtm@@@Z) Export(941, ?get_monthname@?$time_get@DV?$istreambuf_iterator@DU?$char_traits@D@std@@@std@@@std@@QEBA?AV?$istreambuf_iterator@DU?$char_traits@D@std@@@2@V32@0AEAVios_base@2@AEAHPEAUtm@@@Z) Export(942, ?get_monthname@?$time_get@GV?$istreambuf_iterator@GU?$char_traits@G@std@@@std@@@std@@QEBA?AV?$istreambuf_iterator@GU?$char_traits@G@std@@@2@V32@0AEAVios_base@2@AEAHPEAUtm@@@Z) Export(943, ?get_monthname@?$time_get@_WV?$istreambuf_iterator@_WU?$char_traits@_W@std@@@std@@@std@@QEBA?AV?$istreambuf_iterator@_WU?$char_traits@_W@std@@@2@V32@0AEAVios_base@2@AEAHPEAUtm@@@Z) Export(944, ?get_new_handler@std@@YAP6AXXZXZ) Export(945, ?get_time@?$time_get@DV?$istreambuf_iterator@DU?$char_traits@D@std@@@std@@@std@@QEBA?AV?$istreambuf_iterator@DU?$char_traits@D@std@@@2@V32@0AEAVios_base@2@AEAHPEAUtm@@@Z) Export(946, ?get_time@?$time_get@GV?$istreambuf_iterator@GU?$char_traits@G@std@@@std@@@std@@QEBA?AV?$istreambuf_iterator@GU?$char_traits@G@std@@@2@V32@0AEAVios_base@2@AEAHPEAUtm@@@Z) Export(947, ?get_time@?$time_get@_WV?$istreambuf_iterator@_WU?$char_traits@_W@std@@@std@@@std@@QEBA?AV?$istreambuf_iterator@_WU?$char_traits@_W@std@@@2@V32@0AEAVios_base@2@AEAHPEAUtm@@@Z) Export(948, ?get_weekday@?$time_get@DV?$istreambuf_iterator@DU?$char_traits@D@std@@@std@@@std@@QEBA?AV?$istreambuf_iterator@DU?$char_traits@D@std@@@2@V32@0AEAVios_base@2@AEAHPEAUtm@@@Z) Export(949, ?get_weekday@?$time_get@GV?$istreambuf_iterator@GU?$char_traits@G@std@@@std@@@std@@QEBA?AV?$istreambuf_iterator@GU?$char_traits@G@std@@@2@V32@0AEAVios_base@2@AEAHPEAUtm@@@Z) 
Export(950, ?get_weekday@?$time_get@_WV?$istreambuf_iterator@_WU?$char_traits@_W@std@@@std@@@std@@QEBA?AV?$istreambuf_iterator@_WU?$char_traits@_W@std@@@2@V32@0AEAVios_base@2@AEAHPEAUtm@@@Z) Export(951, ?get_year@?$time_get@DV?$istreambuf_iterator@DU?$char_traits@D@std@@@std@@@std@@QEBA?AV?$istreambuf_iterator@DU?$char_traits@D@std@@@2@V32@0AEAVios_base@2@AEAHPEAUtm@@@Z) Export(952, ?get_year@?$time_get@GV?$istreambuf_iterator@GU?$char_traits@G@std@@@std@@@std@@QEBA?AV?$istreambuf_iterator@GU?$char_traits@G@std@@@2@V32@0AEAVios_base@2@AEAHPEAUtm@@@Z) Export(953, ?get_year@?$time_get@_WV?$istreambuf_iterator@_WU?$char_traits@_W@std@@@std@@@std@@QEBA?AV?$istreambuf_iterator@_WU?$char_traits@_W@std@@@2@V32@0AEAVios_base@2@AEAHPEAUtm@@@Z) Export(954, ?getline@?$basic_istream@DU?$char_traits@D@std@@@std@@QEAAAEAV12@PEAD_J@Z) Export(955, ?getline@?$basic_istream@DU?$char_traits@D@std@@@std@@QEAAAEAV12@PEAD_JD@Z) Export(956, ?getline@?$basic_istream@GU?$char_traits@G@std@@@std@@QEAAAEAV12@PEAG_J@Z) Export(957, ?getline@?$basic_istream@GU?$char_traits@G@std@@@std@@QEAAAEAV12@PEAG_JG@Z) Export(958, ?getline@?$basic_istream@_WU?$char_traits@_W@std@@@std@@QEAAAEAV12@PEA_W_J@Z) Export(959, ?getline@?$basic_istream@_WU?$char_traits@_W@std@@@std@@QEAAAEAV12@PEA_W_J_W@Z) Export(960, ?getloc@?$basic_streambuf@DU?$char_traits@D@std@@@std@@QEBA?AVlocale@2@XZ) Export(961, ?getloc@?$basic_streambuf@GU?$char_traits@G@std@@@std@@QEBA?AVlocale@2@XZ) Export(962, ?getloc@?$basic_streambuf@_WU?$char_traits@_W@std@@@std@@QEBA?AVlocale@2@XZ) Export(963, ?getloc@ios_base@std@@QEBA?AVlocale@2@XZ) Export(964, ?global@locale@std@@SA?AV12@AEBV12@@Z) Export(965, ?good@ios_base@std@@QEBA_NXZ) Export(966, ?gptr@?$basic_streambuf@DU?$char_traits@D@std@@@std@@IEBAPEADXZ) Export(967, ?gptr@?$basic_streambuf@GU?$char_traits@G@std@@@std@@IEBAPEAGXZ) Export(968, ?gptr@?$basic_streambuf@_WU?$char_traits@_W@std@@@std@@IEBAPEA_WXZ) Export(969, ?id@?$codecvt@DDU_Mbstatet@@@std@@2V0locale@2@A) Export(970, ?id@?$codecvt@GDU_Mbstatet@@@std@@2V0locale@2@A) Export(971, ?id@?$codecvt@_WDU_Mbstatet@@@std@@2V0locale@2@A) Export(972, ?id@?$collate@D@std@@2V0locale@2@A) Export(973, ?id@?$collate@G@std@@2V0locale@2@A) Export(974, ?id@?$collate@_W@std@@2V0locale@2@A) Export(975, ?id@?$ctype@D@std@@2V0locale@2@A) Export(976, ?id@?$ctype@G@std@@2V0locale@2@A) Export(977, ?id@?$ctype@_W@std@@2V0locale@2@A) Export(978, ?id@?$messages@D@std@@2V0locale@2@A) Export(979, ?id@?$messages@G@std@@2V0locale@2@A) Export(980, ?id@?$messages@_W@std@@2V0locale@2@A) Export(981, ?id@?$money_get@DV?$istreambuf_iterator@DU?$char_traits@D@std@@@std@@@std@@2V0locale@2@A) Export(982, ?id@?$money_get@GV?$istreambuf_iterator@GU?$char_traits@G@std@@@std@@@std@@2V0locale@2@A) Export(983, ?id@?$money_get@_WV?$istreambuf_iterator@_WU?$char_traits@_W@std@@@std@@@std@@2V0locale@2@A) Export(984, ?id@?$money_put@DV?$ostreambuf_iterator@DU?$char_traits@D@std@@@std@@@std@@2V0locale@2@A) Export(985, ?id@?$money_put@GV?$ostreambuf_iterator@GU?$char_traits@G@std@@@std@@@std@@2V0locale@2@A) Export(986, ?id@?$money_put@_WV?$ostreambuf_iterator@_WU?$char_traits@_W@std@@@std@@@std@@2V0locale@2@A) Export(987, ?id@?$moneypunct@D$00@std@@2V0locale@2@A) Export(988, ?id@?$moneypunct@D$0A@@std@@2V0locale@2@A) Export(989, ?id@?$moneypunct@G$00@std@@2V0locale@2@A) Export(990, ?id@?$moneypunct@G$0A@@std@@2V0locale@2@A) Export(991, ?id@?$moneypunct@_W$00@std@@2V0locale@2@A) Export(992, ?id@?$moneypunct@_W$0A@@std@@2V0locale@2@A) Export(993, ?id@?$num_get@DV?$istreambuf_iterator@DU?$char_traits@D@std@@@std@@@std@@2V0locale@2@A) Export(994, ?id@?$num_get@GV?$istreambuf_iterator@GU?$char_traits@G@std@@@std@@@std@@2V0locale@2@A) Export(995, ?id@?$num_get@_WV?$istreambuf_iterator@_WU?$char_traits@_W@std@@@std@@@std@@2V0locale@2@A) Export(996, ?id@?$num_put@DV?$ostreambuf_iterator@DU?$char_traits@D@std@@@std@@@std@@2V0locale@2@A) Export(997, ?id@?$num_put@GV?$ostreambuf_iterator@GU?$char_traits@G@std@@@std@@@std@@2V0locale@2@A) Export(998, ?id@?$num_put@_WV?$ostreambuf_iterator@_WU?$char_traits@_W@std@@@std@@@std@@2V0locale@2@A) Export(999, ?id@?$numpunct@D@std@@2V0locale@2@A) 
Export(1000, ?id@?$numpunct@G@std@@2V0locale@2@A) Export(1001, ?id@?$numpunct@_W@std@@2V0locale@2@A) Export(1002, ?id@?$time_get@DV?$istreambuf_iterator@DU?$char_traits@D@std@@@std@@@std@@2V0locale@2@A) Export(1003, ?id@?$time_get@GV?$istreambuf_iterator@GU?$char_traits@G@std@@@std@@@std@@2V0locale@2@A) Export(1004, ?id@?$time_get@_WV?$istreambuf_iterator@_WU?$char_traits@_W@std@@@std@@@std@@2V0locale@2@A) Export(1005, ?id@?$time_put@DV?$ostreambuf_iterator@DU?$char_traits@D@std@@@std@@@std@@2V0locale@2@A) Export(1006, ?id@?$time_put@GV?$ostreambuf_iterator@GU?$char_traits@G@std@@@std@@@std@@2V0locale@2@A) Export(1007, ?id@?$time_put@_WV?$ostreambuf_iterator@_WU?$char_traits@_W@std@@@std@@@std@@2V0locale@2@A) Export(1008, ?ignore@?$basic_istream@DU?$char_traits@D@std@@@std@@QEAAAEAV12@_JH@Z) Export(1009, ?ignore@?$basic_istream@GU?$char_traits@G@std@@@std@@QEAAAEAV12@_JG@Z) Export(1010, ?ignore@?$basic_istream@_WU?$char_traits@_W@std@@@std@@QEAAAEAV12@_JG@Z) Export(1011, ?imbue@?$basic_ios@DU?$char_traits@D@std@@@std@@QEAA?AVlocale@2@AEBV32@@Z) Export(1012, ?imbue@?$basic_ios@GU?$char_traits@G@std@@@std@@QEAA?AVlocale@2@AEBV32@@Z) Export(1013, ?imbue@?$basic_ios@_WU?$char_traits@_W@std@@@std@@QEAA?AVlocale@2@AEBV32@@Z) Export(1014, ?imbue@?$basic_streambuf@DU?$char_traits@D@std@@@std@@MEAAXAEBVlocale@2@@Z) Export(1015, ?imbue@?$basic_streambuf@GU?$char_traits@G@std@@@std@@MEAAXAEBVlocale@2@@Z) Export(1016, ?imbue@?$basic_streambuf@_WU?$char_traits@_W@std@@@std@@MEAAXAEBVlocale@2@@Z) Export(1017, ?imbue@ios_base@std@@QEAA?AVlocale@2@AEBV32@@Z) Export(1018, ?in@?$codecvt@DDU_Mbstatet@@@std@@QEBAHAEAU_Mbstatet@@PEBD1AEAPEBDPEAD3AEAPEAD@Z) Export(1019, ?in@?$codecvt@GDU_Mbstatet@@@std@@QEBAHAEAU_Mbstatet@@PEBD1AEAPEBDPEAG3AEAPEAG@Z) Export(1020, ?in@?$codecvt@_SDU_Mbstatet@@@std@@QEBAHAEAU_Mbstatet@@PEBD1AEAPEBDPEA_S3AEAPEA_S@Z) Export(1021, ?in@?$codecvt@_UDU_Mbstatet@@@std@@QEBAHAEAU_Mbstatet@@PEBD1AEAPEBDPEA_U3AEAPEA_U@Z) Export(1022, ?in@?$codecvt@_WDU_Mbstatet@@@std@@QEBAHAEAU_Mbstatet@@PEBD1AEAPEBDPEA_W3AEAPEA_W@Z) Export(1023, ?in_avail@?$basic_streambuf@DU?$char_traits@D@std@@@std@@QEAA_JXZ) Export(1024, ?in_avail@?$basic_streambuf@GU?$char_traits@G@std@@@std@@QEAA_JXZ) Export(1025, ?in_avail@?$basic_streambuf@_WU?$char_traits@_W@std@@@std@@QEAA_JXZ) Export(1026, ?init@?$basic_ios@DU?$char_traits@D@std@@@std@@IEAAXPEAV?$basic_streambuf@DU?$char_traits@D@std@@@2@_N@Z) Export(1027, ?init@?$basic_ios@GU?$char_traits@G@std@@@std@@IEAAXPEAV?$basic_streambuf@GU?$char_traits@G@std@@@2@_N@Z) Export(1028, ?init@?$basic_ios@_WU?$char_traits@_W@std@@@std@@IEAAXPEAV?$basic_streambuf@_WU?$char_traits@_W@std@@@2@_N@Z) Export(1029, ?intl@?$moneypunct@D$00@std@@2_NB) Export(1030, ?intl@?$moneypunct@D$0A@@std@@2_NB) Export(1031, ?intl@?$moneypunct@G$00@std@@2_NB) Export(1032, ?intl@?$moneypunct@G$0A@@std@@2_NB) Export(1033, ?intl@?$moneypunct@_W$00@std@@2_NB) Export(1034, ?intl@?$moneypunct@_W$0A@@std@@2_NB) Export(1035, ?ipfx@?$basic_istream@DU?$char_traits@D@std@@@std@@QEAA_N_N@Z) Export(1036, ?ipfx@?$basic_istream@GU?$char_traits@G@std@@@std@@QEAA_N_N@Z) Export(1037, ?ipfx@?$basic_istream@_WU?$char_traits@_W@std@@@std@@QEAA_N_N@Z) Export(1038, ?is@?$ctype@D@std@@QEBAPEBDPEBD0PEAF@Z) Export(1039, ?is@?$ctype@D@std@@QEBA_NFD@Z) Export(1040, ?is@?$ctype@G@std@@QEBAPEBGPEBG0PEAF@Z) Export(1041, ?is@?$ctype@G@std@@QEBA_NFG@Z) Export(1042, ?is@?$ctype@_W@std@@QEBAPEB_WPEB_W0PEAF@Z) Export(1043, ?is@?$ctype@_W@std@@QEBA_NF_W@Z) Export(1044, ?isfx@?$basic_istream@DU?$char_traits@D@std@@@std@@QEAAXXZ) Export(1045, ?isfx@?$basic_istream@GU?$char_traits@G@std@@@std@@QEAAXXZ) Export(1046, ?isfx@?$basic_istream@_WU?$char_traits@_W@std@@@std@@QEAAXXZ) Export(1047, ?iword@ios_base@std@@QEAAAEAJH@Z) Export(1048, ?length@?$codecvt@DDU_Mbstatet@@@std@@QEBAHAEAU_Mbstatet@@PEBD1_K@Z) Export(1049, ?length@?$codecvt@GDU_Mbstatet@@@std@@QEBAHAEAU_Mbstatet@@PEBD1_K@Z) 
Export(1050, ?length@?$codecvt@_SDU_Mbstatet@@@std@@QEBAHAEAU_Mbstatet@@PEBD1_K@Z) Export(1051, ?length@?$codecvt@_UDU_Mbstatet@@@std@@QEBAHAEAU_Mbstatet@@PEBD1_K@Z) Export(1052, ?length@?$codecvt@_WDU_Mbstatet@@@std@@QEBAHAEAU_Mbstatet@@PEBD1_K@Z) Export(1053, ?max_length@codecvt_base@std@@QEBAHXZ) Export(1054, ?move@?$basic_ios@DU?$char_traits@D@std@@@std@@QEAAX$$QEAV12@@Z) Export(1055, ?move@?$basic_ios@DU?$char_traits@D@std@@@std@@QEAAXAEAV12@@Z) Export(1056, ?move@?$basic_ios@GU?$char_traits@G@std@@@std@@QEAAX$$QEAV12@@Z) Export(1057, ?move@?$basic_ios@GU?$char_traits@G@std@@@std@@QEAAXAEAV12@@Z) Export(1058, ?move@?$basic_ios@_WU?$char_traits@_W@std@@@std@@QEAAX$$QEAV12@@Z) Export(1059, ?move@?$basic_ios@_WU?$char_traits@_W@std@@@std@@QEAAXAEAV12@@Z) Export(1060, ?narrow@?$basic_ios@DU?$char_traits@D@std@@@std@@QEBADDD@Z) Export(1061, ?narrow@?$basic_ios@GU?$char_traits@G@std@@@std@@QEBADGD@Z) Export(1062, ?narrow@?$basic_ios@_WU?$char_traits@_W@std@@@std@@QEBAD_WD@Z) Export(1063, ?narrow@?$ctype@D@std@@QEBADDD@Z) Export(1064, ?narrow@?$ctype@D@std@@QEBAPEBDPEBD0DPEAD@Z) Export(1065, ?narrow@?$ctype@G@std@@QEBADGD@Z) Export(1066, ?narrow@?$ctype@G@std@@QEBAPEBGPEBG0DPEAD@Z) Export(1067, ?narrow@?$ctype@_W@std@@QEBAD_WD@Z) Export(1068, ?narrow@?$ctype@_W@std@@QEBAPEB_WPEB_W0DPEAD@Z) Export(1069, ?opfx@?$basic_ostream@DU?$char_traits@D@std@@@std@@QEAA_NXZ) Export(1070, ?opfx@?$basic_ostream@GU?$char_traits@G@std@@@std@@QEAA_NXZ) Export(1071, ?opfx@?$basic_ostream@_WU?$char_traits@_W@std@@@std@@QEAA_NXZ) Export(1072, ?osfx@?$basic_ostream@DU?$char_traits@D@std@@@std@@QEAAXXZ) Export(1073, ?osfx@?$basic_ostream@GU?$char_traits@G@std@@@std@@QEAAXXZ) Export(1074, ?osfx@?$basic_ostream@_WU?$char_traits@_W@std@@@std@@QEAAXXZ) Export(1075, ?out@?$codecvt@DDU_Mbstatet@@@std@@QEBAHAEAU_Mbstatet@@PEBD1AEAPEBDPEAD3AEAPEAD@Z) Export(1076, ?out@?$codecvt@GDU_Mbstatet@@@std@@QEBAHAEAU_Mbstatet@@PEBG1AEAPEBGPEAD3AEAPEAD@Z) Export(1077, ?out@?$codecvt@_SDU_Mbstatet@@@std@@QEBAHAEAU_Mbstatet@@PEB_S1AEAPEB_SPEAD3AEAPEAD@Z) Export(1078, ?out@?$codecvt@_UDU_Mbstatet@@@std@@QEBAHAEAU_Mbstatet@@PEB_U1AEAPEB_UPEAD3AEAPEAD@Z) Export(1079, ?out@?$codecvt@_WDU_Mbstatet@@@std@@QEBAHAEAU_Mbstatet@@PEB_W1AEAPEB_WPEAD3AEAPEAD@Z) Export(1080, ?overflow@?$basic_streambuf@DU?$char_traits@D@std@@@std@@MEAAHH@Z) Export(1081, ?overflow@?$basic_streambuf@GU?$char_traits@G@std@@@std@@MEAAGG@Z) Export(1082, ?overflow@?$basic_streambuf@_WU?$char_traits@_W@std@@@std@@MEAAGG@Z) Export(1083, ?pbackfail@?$basic_streambuf@DU?$char_traits@D@std@@@std@@MEAAHH@Z) Export(1084, ?pbackfail@?$basic_streambuf@GU?$char_traits@G@std@@@std@@MEAAGG@Z) Export(1085, ?pbackfail@?$basic_streambuf@_WU?$char_traits@_W@std@@@std@@MEAAGG@Z) Export(1086, ?pbase@?$basic_streambuf@DU?$char_traits@D@std@@@std@@IEBAPEADXZ) Export(1087, ?pbase@?$basic_streambuf@GU?$char_traits@G@std@@@std@@IEBAPEAGXZ) Export(1088, ?pbase@?$basic_streambuf@_WU?$char_traits@_W@std@@@std@@IEBAPEA_WXZ) Export(1089, ?pbump@?$basic_streambuf@DU?$char_traits@D@std@@@std@@IEAAXH@Z) Export(1090, ?pbump@?$basic_streambuf@GU?$char_traits@G@std@@@std@@IEAAXH@Z) Export(1091, ?pbump@?$basic_streambuf@_WU?$char_traits@_W@std@@@std@@IEAAXH@Z) Export(1092, ?peek@?$basic_istream@DU?$char_traits@D@std@@@std@@QEAAHXZ) Export(1093, ?peek@?$basic_istream@GU?$char_traits@G@std@@@std@@QEAAGXZ) Export(1094, ?peek@?$basic_istream@_WU?$char_traits@_W@std@@@std@@QEAAGXZ) Export(1095, ?pptr@?$basic_streambuf@DU?$char_traits@D@std@@@std@@IEBAPEADXZ) Export(1096, ?pptr@?$basic_streambuf@GU?$char_traits@G@std@@@std@@IEBAPEAGXZ) Export(1097, ?pptr@?$basic_streambuf@_WU?$char_traits@_W@std@@@std@@IEBAPEA_WXZ) Export(1098, ?precision@ios_base@std@@QEAA_J_J@Z) Export(1099, ?precision@ios_base@std@@QEBA_JXZ) 
Export(1100, ?pubimbue@?$basic_streambuf@DU?$char_traits@D@std@@@std@@QEAA?AVlocale@2@AEBV32@@Z) Export(1101, ?pubimbue@?$basic_streambuf@GU?$char_traits@G@std@@@std@@QEAA?AVlocale@2@AEBV32@@Z) Export(1102, ?pubimbue@?$basic_streambuf@_WU?$char_traits@_W@std@@@std@@QEAA?AVlocale@2@AEBV32@@Z) Export(1103, ?pubseekoff@?$basic_streambuf@DU?$char_traits@D@std@@@std@@QEAA?AV?$fpos@U_Mbstatet@@@2@_JHH@Z) Export(1104, ?pubseekoff@?$basic_streambuf@DU?$char_traits@D@std@@@std@@QEAA?AV?$fpos@U_Mbstatet@@@2@_JII@Z) Export(1105, ?pubseekoff@?$basic_streambuf@GU?$char_traits@G@std@@@std@@QEAA?AV?$fpos@U_Mbstatet@@@2@_JHH@Z) Export(1106, ?pubseekoff@?$basic_streambuf@GU?$char_traits@G@std@@@std@@QEAA?AV?$fpos@U_Mbstatet@@@2@_JII@Z) Export(1107, ?pubseekoff@?$basic_streambuf@_WU?$char_traits@_W@std@@@std@@QEAA?AV?$fpos@U_Mbstatet@@@2@_JHH@Z) Export(1108, ?pubseekoff@?$basic_streambuf@_WU?$char_traits@_W@std@@@std@@QEAA?AV?$fpos@U_Mbstatet@@@2@_JII@Z) Export(1109, ?pubseekpos@?$basic_streambuf@DU?$char_traits@D@std@@@std@@QEAA?AV?$fpos@U_Mbstatet@@@2@V32@H@Z) Export(1110, ?pubseekpos@?$basic_streambuf@DU?$char_traits@D@std@@@std@@QEAA?AV?$fpos@U_Mbstatet@@@2@V32@I@Z) Export(1111, ?pubseekpos@?$basic_streambuf@GU?$char_traits@G@std@@@std@@QEAA?AV?$fpos@U_Mbstatet@@@2@V32@H@Z) Export(1112, ?pubseekpos@?$basic_streambuf@GU?$char_traits@G@std@@@std@@QEAA?AV?$fpos@U_Mbstatet@@@2@V32@I@Z) Export(1113, ?pubseekpos@?$basic_streambuf@_WU?$char_traits@_W@std@@@std@@QEAA?AV?$fpos@U_Mbstatet@@@2@V32@H@Z) Export(1114, ?pubseekpos@?$basic_streambuf@_WU?$char_traits@_W@std@@@std@@QEAA?AV?$fpos@U_Mbstatet@@@2@V32@I@Z) Export(1115, ?pubsetbuf@?$basic_streambuf@DU?$char_traits@D@std@@@std@@QEAAPEAV12@PEAD_J@Z) Export(1116, ?pubsetbuf@?$basic_streambuf@GU?$char_traits@G@std@@@std@@QEAAPEAV12@PEAG_J@Z) Export(1117, ?pubsetbuf@?$basic_streambuf@_WU?$char_traits@_W@std@@@std@@QEAAPEAV12@PEA_W_J@Z) Export(1118, ?pubsync@?$basic_streambuf@DU?$char_traits@D@std@@@std@@QEAAHXZ) Export(1119, ?pubsync@?$basic_streambuf@GU?$char_traits@G@std@@@std@@QEAAHXZ) Export(1120, ?pubsync@?$basic_streambuf@_WU?$char_traits@_W@std@@@std@@QEAAHXZ) Export(1121, ?put@?$basic_ostream@DU?$char_traits@D@std@@@std@@QEAAAEAV12@D@Z) Export(1122, ?put@?$basic_ostream@GU?$char_traits@G@std@@@std@@QEAAAEAV12@G@Z) Export(1123, ?put@?$basic_ostream@_WU?$char_traits@_W@std@@@std@@QEAAAEAV12@_W@Z) Export(1124, ?put@?$num_put@DV?$ostreambuf_iterator@DU?$char_traits@D@std@@@std@@@std@@QEBA?AV?$ostreambuf_iterator@DU?$char_traits@D@std@@@2@V32@AEAVios_base@2@DJ@Z) Export(1125, ?put@?$num_put@DV?$ostreambuf_iterator@DU?$char_traits@D@std@@@std@@@std@@QEBA?AV?$ostreambuf_iterator@DU?$char_traits@D@std@@@2@V32@AEAVios_base@2@DK@Z) Export(1126, ?put@?$num_put@DV?$ostreambuf_iterator@DU?$char_traits@D@std@@@std@@@std@@QEBA?AV?$ostreambuf_iterator@DU?$char_traits@D@std@@@2@V32@AEAVios_base@2@DN@Z) Export(1127, ?put@?$num_put@DV?$ostreambuf_iterator@DU?$char_traits@D@std@@@std@@@std@@QEBA?AV?$ostreambuf_iterator@DU?$char_traits@D@std@@@2@V32@AEAVios_base@2@DO@Z) Export(1128, ?put@?$num_put@DV?$ostreambuf_iterator@DU?$char_traits@D@std@@@std@@@std@@QEBA?AV?$ostreambuf_iterator@DU?$char_traits@D@std@@@2@V32@AEAVios_base@2@DPEBX@Z) Export(1129, ?put@?$num_put@DV?$ostreambuf_iterator@DU?$char_traits@D@std@@@std@@@std@@QEBA?AV?$ostreambuf_iterator@DU?$char_traits@D@std@@@2@V32@AEAVios_base@2@D_J@Z) Export(1130, ?put@?$num_put@DV?$ostreambuf_iterator@DU?$char_traits@D@std@@@std@@@std@@QEBA?AV?$ostreambuf_iterator@DU?$char_traits@D@std@@@2@V32@AEAVios_base@2@D_K@Z) Export(1131, ?put@?$num_put@DV?$ostreambuf_iterator@DU?$char_traits@D@std@@@std@@@std@@QEBA?AV?$ostreambuf_iterator@DU?$char_traits@D@std@@@2@V32@AEAVios_base@2@D_N@Z) Export(1132, ?put@?$num_put@GV?$ostreambuf_iterator@GU?$char_traits@G@std@@@std@@@std@@QEBA?AV?$ostreambuf_iterator@GU?$char_traits@G@std@@@2@V32@AEAVios_base@2@GJ@Z) Export(1133, ?put@?$num_put@GV?$ostreambuf_iterator@GU?$char_traits@G@std@@@std@@@std@@QEBA?AV?$ostreambuf_iterator@GU?$char_traits@G@std@@@2@V32@AEAVios_base@2@GK@Z) Export(1134, ?put@?$num_put@GV?$ostreambuf_iterator@GU?$char_traits@G@std@@@std@@@std@@QEBA?AV?$ostreambuf_iterator@GU?$char_traits@G@std@@@2@V32@AEAVios_base@2@GN@Z) Export(1135, ?put@?$num_put@GV?$ostreambuf_iterator@GU?$char_traits@G@std@@@std@@@std@@QEBA?AV?$ostreambuf_iterator@GU?$char_traits@G@std@@@2@V32@AEAVios_base@2@GO@Z) Export(1136, ?put@?$num_put@GV?$ostreambuf_iterator@GU?$char_traits@G@std@@@std@@@std@@QEBA?AV?$ostreambuf_iterator@GU?$char_traits@G@std@@@2@V32@AEAVios_base@2@GPEBX@Z) Export(1137, ?put@?$num_put@GV?$ostreambuf_iterator@GU?$char_traits@G@std@@@std@@@std@@QEBA?AV?$ostreambuf_iterator@GU?$char_traits@G@std@@@2@V32@AEAVios_base@2@G_J@Z) Export(1138, ?put@?$num_put@GV?$ostreambuf_iterator@GU?$char_traits@G@std@@@std@@@std@@QEBA?AV?$ostreambuf_iterator@GU?$char_traits@G@std@@@2@V32@AEAVios_base@2@G_K@Z) Export(1139, ?put@?$num_put@GV?$ostreambuf_iterator@GU?$char_traits@G@std@@@std@@@std@@QEBA?AV?$ostreambuf_iterator@GU?$char_traits@G@std@@@2@V32@AEAVios_base@2@G_N@Z) Export(1140, ?put@?$num_put@_WV?$ostreambuf_iterator@_WU?$char_traits@_W@std@@@std@@@std@@QEBA?AV?$ostreambuf_iterator@_WU?$char_traits@_W@std@@@2@V32@AEAVios_base@2@_WJ@Z) Export(1141, ?put@?$num_put@_WV?$ostreambuf_iterator@_WU?$char_traits@_W@std@@@std@@@std@@QEBA?AV?$ostreambuf_iterator@_WU?$char_traits@_W@std@@@2@V32@AEAVios_base@2@_WK@Z) Export(1142, ?put@?$num_put@_WV?$ostreambuf_iterator@_WU?$char_traits@_W@std@@@std@@@std@@QEBA?AV?$ostreambuf_iterator@_WU?$char_traits@_W@std@@@2@V32@AEAVios_base@2@_WN@Z) Export(1143, ?put@?$num_put@_WV?$ostreambuf_iterator@_WU?$char_traits@_W@std@@@std@@@std@@QEBA?AV?$ostreambuf_iterator@_WU?$char_traits@_W@std@@@2@V32@AEAVios_base@2@_WO@Z) Export(1144, ?put@?$num_put@_WV?$ostreambuf_iterator@_WU?$char_traits@_W@std@@@std@@@std@@QEBA?AV?$ostreambuf_iterator@_WU?$char_traits@_W@std@@@2@V32@AEAVios_base@2@_WPEBX@Z) Export(1145, ?put@?$num_put@_WV?$ostreambuf_iterator@_WU?$char_traits@_W@std@@@std@@@std@@QEBA?AV?$ostreambuf_iterator@_WU?$char_traits@_W@std@@@2@V32@AEAVios_base@2@_W_J@Z) Export(1146, ?put@?$num_put@_WV?$ostreambuf_iterator@_WU?$char_traits@_W@std@@@std@@@std@@QEBA?AV?$ostreambuf_iterator@_WU?$char_traits@_W@std@@@2@V32@AEAVios_base@2@_W_K@Z) Export(1147, ?put@?$num_put@_WV?$ostreambuf_iterator@_WU?$char_traits@_W@std@@@std@@@std@@QEBA?AV?$ostreambuf_iterator@_WU?$char_traits@_W@std@@@2@V32@AEAVios_base@2@_W_N@Z) Export(1148, ?put@?$time_put@DV?$ostreambuf_iterator@DU?$char_traits@D@std@@@std@@@std@@QEBA?AV?$ostreambuf_iterator@DU?$char_traits@D@std@@@2@V32@AEAVios_base@2@DPEBUtm@@DD@Z) Export(1149, ?put@?$time_put@DV?$ostreambuf_iterator@DU?$char_traits@D@std@@@std@@@std@@QEBA?AV?$ostreambuf_iterator@DU?$char_traits@D@std@@@2@V32@AEAVios_base@2@DPEBUtm@@PEBD3@Z) 
Export(1150, ?put@?$time_put@GV?$ostreambuf_iterator@GU?$char_traits@G@std@@@std@@@std@@QEBA?AV?$ostreambuf_iterator@GU?$char_traits@G@std@@@2@V32@AEAVios_base@2@GPEBUtm@@DD@Z) Export(1151, ?put@?$time_put@GV?$ostreambuf_iterator@GU?$char_traits@G@std@@@std@@@std@@QEBA?AV?$ostreambuf_iterator@GU?$char_traits@G@std@@@2@V32@AEAVios_base@2@GPEBUtm@@PEBG3@Z) Export(1152, ?put@?$time_put@_WV?$ostreambuf_iterator@_WU?$char_traits@_W@std@@@std@@@std@@QEBA?AV?$ostreambuf_iterator@_WU?$char_traits@_W@std@@@2@V32@AEAVios_base@2@_WPEBUtm@@DD@Z) Export(1153, ?put@?$time_put@_WV?$ostreambuf_iterator@_WU?$char_traits@_W@std@@@std@@@std@@QEBA?AV?$ostreambuf_iterator@_WU?$char_traits@_W@std@@@2@V32@AEAVios_base@2@_WPEBUtm@@PEB_W4@Z) Export(1154, ?putback@?$basic_istream@DU?$char_traits@D@std@@@std@@QEAAAEAV12@D@Z) Export(1155, ?putback@?$basic_istream@GU?$char_traits@G@std@@@std@@QEAAAEAV12@G@Z) Export(1156, ?putback@?$basic_istream@_WU?$char_traits@_W@std@@@std@@QEAAAEAV12@_W@Z) Export(1157, ?pword@ios_base@std@@QEAAAEAPEAXH@Z) Export(1158, ?rdbuf@?$basic_ios@DU?$char_traits@D@std@@@std@@QEAAPEAV?$basic_streambuf@DU?$char_traits@D@std@@@2@PEAV32@@Z) Export(1159, ?rdbuf@?$basic_ios@DU?$char_traits@D@std@@@std@@QEBAPEAV?$basic_streambuf@DU?$char_traits@D@std@@@2@XZ) Export(1160, ?rdbuf@?$basic_ios@GU?$char_traits@G@std@@@std@@QEAAPEAV?$basic_streambuf@GU?$char_traits@G@std@@@2@PEAV32@@Z) Export(1161, ?rdbuf@?$basic_ios@GU?$char_traits@G@std@@@std@@QEBAPEAV?$basic_streambuf@GU?$char_traits@G@std@@@2@XZ) Export(1162, ?rdbuf@?$basic_ios@_WU?$char_traits@_W@std@@@std@@QEAAPEAV?$basic_streambuf@_WU?$char_traits@_W@std@@@2@PEAV32@@Z) Export(1163, ?rdbuf@?$basic_ios@_WU?$char_traits@_W@std@@@std@@QEBAPEAV?$basic_streambuf@_WU?$char_traits@_W@std@@@2@XZ) Export(1164, ?rdstate@ios_base@std@@QEBAHXZ) Export(1165, ?read@?$basic_istream@DU?$char_traits@D@std@@@std@@QEAAAEAV12@PEAD_J@Z) Export(1166, ?read@?$basic_istream@GU?$char_traits@G@std@@@std@@QEAAAEAV12@PEAG_J@Z) Export(1167, ?read@?$basic_istream@_WU?$char_traits@_W@std@@@std@@QEAAAEAV12@PEA_W_J@Z) Export(1168, ?readsome@?$basic_istream@DU?$char_traits@D@std@@@std@@QEAA_JPEAD_J@Z) Export(1169, ?readsome@?$basic_istream@GU?$char_traits@G@std@@@std@@QEAA_JPEAG_J@Z) Export(1170, ?readsome@?$basic_istream@_WU?$char_traits@_W@std@@@std@@QEAA_JPEA_W_J@Z) Export(1171, ?register_callback@ios_base@std@@QEAAXP6AXW4event@12@AEAV12@H@ZH@Z) Export(1172, ?resetiosflags@std@@YA?AU?$_Smanip@H@1@H@Z) Export(1173, ?sbumpc@?$basic_streambuf@DU?$char_traits@D@std@@@std@@QEAAHXZ) Export(1174, ?sbumpc@?$basic_streambuf@GU?$char_traits@G@std@@@std@@QEAAGXZ) Export(1175, ?sbumpc@?$basic_streambuf@_WU?$char_traits@_W@std@@@std@@QEAAGXZ) Export(1176, ?scan_is@?$ctype@D@std@@QEBAPEBDFPEBD0@Z) Export(1177, ?scan_is@?$ctype@G@std@@QEBAPEBGFPEBG0@Z) Export(1178, ?scan_is@?$ctype@_W@std@@QEBAPEB_WFPEB_W0@Z) Export(1179, ?scan_not@?$ctype@D@std@@QEBAPEBDFPEBD0@Z) Export(1180, ?scan_not@?$ctype@G@std@@QEBAPEBGFPEBG0@Z) Export(1181, ?scan_not@?$ctype@_W@std@@QEBAPEB_WFPEB_W0@Z) Export(1182, ?seekg@?$basic_istream@DU?$char_traits@D@std@@@std@@QEAAAEAV12@V?$fpos@U_Mbstatet@@@2@@Z) Export(1183, ?seekg@?$basic_istream@DU?$char_traits@D@std@@@std@@QEAAAEAV12@_JH@Z) Export(1184, ?seekg@?$basic_istream@GU?$char_traits@G@std@@@std@@QEAAAEAV12@V?$fpos@U_Mbstatet@@@2@@Z) Export(1185, ?seekg@?$basic_istream@GU?$char_traits@G@std@@@std@@QEAAAEAV12@_JH@Z) Export(1186, ?seekg@?$basic_istream@_WU?$char_traits@_W@std@@@std@@QEAAAEAV12@V?$fpos@U_Mbstatet@@@2@@Z) Export(1187, ?seekg@?$basic_istream@_WU?$char_traits@_W@std@@@std@@QEAAAEAV12@_JH@Z) Export(1188, ?seekoff@?$basic_streambuf@DU?$char_traits@D@std@@@std@@MEAA?AV?$fpos@U_Mbstatet@@@2@_JHH@Z) Export(1189, ?seekoff@?$basic_streambuf@GU?$char_traits@G@std@@@std@@MEAA?AV?$fpos@U_Mbstatet@@@2@_JHH@Z) Export(1190, ?seekoff@?$basic_streambuf@_WU?$char_traits@_W@std@@@std@@MEAA?AV?$fpos@U_Mbstatet@@@2@_JHH@Z) Export(1191, ?seekp@?$basic_ostream@DU?$char_traits@D@std@@@std@@QEAAAEAV12@V?$fpos@U_Mbstatet@@@2@@Z) Export(1192, ?seekp@?$basic_ostream@DU?$char_traits@D@std@@@std@@QEAAAEAV12@_JH@Z) Export(1193, ?seekp@?$basic_ostream@GU?$char_traits@G@std@@@std@@QEAAAEAV12@V?$fpos@U_Mbstatet@@@2@@Z) Export(1194, ?seekp@?$basic_ostream@GU?$char_traits@G@std@@@std@@QEAAAEAV12@_JH@Z) Export(1195, ?seekp@?$basic_ostream@_WU?$char_traits@_W@std@@@std@@QEAAAEAV12@V?$fpos@U_Mbstatet@@@2@@Z) Export(1196, ?seekp@?$basic_ostream@_WU?$char_traits@_W@std@@@std@@QEAAAEAV12@_JH@Z) Export(1197, ?seekpos@?$basic_streambuf@DU?$char_traits@D@std@@@std@@MEAA?AV?$fpos@U_Mbstatet@@@2@V32@H@Z) Export(1198, ?seekpos@?$basic_streambuf@GU?$char_traits@G@std@@@std@@MEAA?AV?$fpos@U_Mbstatet@@@2@V32@H@Z) Export(1199, ?seekpos@?$basic_streambuf@_WU?$char_traits@_W@std@@@std@@MEAA?AV?$fpos@U_Mbstatet@@@2@V32@H@Z) 
Export(1200, ?set_new_handler@std@@YAP6AXXZP6AXXZ@Z) Export(1201, ?set_rdbuf@?$basic_ios@DU?$char_traits@D@std@@@std@@QEAAXPEAV?$basic_streambuf@DU?$char_traits@D@std@@@2@@Z) Export(1202, ?set_rdbuf@?$basic_ios@GU?$char_traits@G@std@@@std@@QEAAXPEAV?$basic_streambuf@GU?$char_traits@G@std@@@2@@Z) Export(1203, ?set_rdbuf@?$basic_ios@_WU?$char_traits@_W@std@@@std@@QEAAXPEAV?$basic_streambuf@_WU?$char_traits@_W@std@@@2@@Z) Export(1204, ?setbase@std@@YA?AU?$_Smanip@H@1@H@Z) Export(1205, ?setbuf@?$basic_streambuf@DU?$char_traits@D@std@@@std@@MEAAPEAV12@PEAD_J@Z) Export(1206, ?setbuf@?$basic_streambuf@GU?$char_traits@G@std@@@std@@MEAAPEAV12@PEAG_J@Z) Export(1207, ?setbuf@?$basic_streambuf@_WU?$char_traits@_W@std@@@std@@MEAAPEAV12@PEA_W_J@Z) Export(1208, ?setf@ios_base@std@@QEAAHH@Z) Export(1209, ?setf@ios_base@std@@QEAAHHH@Z) Export(1210, ?setg@?$basic_streambuf@DU?$char_traits@D@std@@@std@@IEAAXPEAD00@Z) Export(1211, ?setg@?$basic_streambuf@GU?$char_traits@G@std@@@std@@IEAAXPEAG00@Z) Export(1212, ?setg@?$basic_streambuf@_WU?$char_traits@_W@std@@@std@@IEAAXPEA_W00@Z) Export(1213, ?setiosflags@std@@YA?AU?$_Smanip@H@1@H@Z) Export(1214, ?setp@?$basic_streambuf@DU?$char_traits@D@std@@@std@@IEAAXPEAD00@Z) Export(1215, ?setp@?$basic_streambuf@DU?$char_traits@D@std@@@std@@IEAAXPEAD0@Z) Export(1216, ?setp@?$basic_streambuf@GU?$char_traits@G@std@@@std@@IEAAXPEAG00@Z) Export(1217, ?setp@?$basic_streambuf@GU?$char_traits@G@std@@@std@@IEAAXPEAG0@Z) Export(1218, ?setp@?$basic_streambuf@_WU?$char_traits@_W@std@@@std@@IEAAXPEA_W00@Z) Export(1219, ?setp@?$basic_streambuf@_WU?$char_traits@_W@std@@@std@@IEAAXPEA_W0@Z) Export(1220, ?setprecision@std@@YA?AU?$_Smanip@_J@1@_J@Z) Export(1221, ?setstate@?$basic_ios@DU?$char_traits@D@std@@@std@@QEAAXH_N@Z) Export(1222, ?setstate@?$basic_ios@DU?$char_traits@D@std@@@std@@QEAAXI@Z) Export(1223, ?setstate@?$basic_ios@GU?$char_traits@G@std@@@std@@QEAAXH_N@Z) Export(1224, ?setstate@?$basic_ios@GU?$char_traits@G@std@@@std@@QEAAXI@Z) Export(1225, ?setstate@?$basic_ios@_WU?$char_traits@_W@std@@@std@@QEAAXH_N@Z) Export(1226, ?setstate@?$basic_ios@_WU?$char_traits@_W@std@@@std@@QEAAXI@Z) Export(1227, ?setstate@ios_base@std@@QEAAXH@Z) Export(1228, ?setstate@ios_base@std@@QEAAXH_N@Z) Export(1229, ?setstate@ios_base@std@@QEAAXI@Z) Export(1230, ?setw@std@@YA?AU?$_Smanip@_J@1@_J@Z) Export(1231, ?sgetc@?$basic_streambuf@DU?$char_traits@D@std@@@std@@QEAAHXZ) Export(1232, ?sgetc@?$basic_streambuf@GU?$char_traits@G@std@@@std@@QEAAGXZ) Export(1233, ?sgetc@?$basic_streambuf@_WU?$char_traits@_W@std@@@std@@QEAAGXZ) Export(1234, ?sgetn@?$basic_streambuf@DU?$char_traits@D@std@@@std@@QEAA_JPEAD_J@Z) Export(1235, ?sgetn@?$basic_streambuf@GU?$char_traits@G@std@@@std@@QEAA_JPEAG_J@Z) Export(1236, ?sgetn@?$basic_streambuf@_WU?$char_traits@_W@std@@@std@@QEAA_JPEA_W_J@Z) Export(1237, ?showmanyc@?$basic_streambuf@DU?$char_traits@D@std@@@std@@MEAA_JXZ) Export(1238, ?showmanyc@?$basic_streambuf@GU?$char_traits@G@std@@@std@@MEAA_JXZ) Export(1239, ?showmanyc@?$basic_streambuf@_WU?$char_traits@_W@std@@@std@@MEAA_JXZ) Export(1240, ?snextc@?$basic_streambuf@DU?$char_traits@D@std@@@std@@QEAAHXZ) Export(1241, ?snextc@?$basic_streambuf@GU?$char_traits@G@std@@@std@@QEAAGXZ) Export(1242, ?snextc@?$basic_streambuf@_WU?$char_traits@_W@std@@@std@@QEAAGXZ) Export(1243, ?sputbackc@?$basic_streambuf@DU?$char_traits@D@std@@@std@@QEAAHD@Z) Export(1244, ?sputbackc@?$basic_streambuf@GU?$char_traits@G@std@@@std@@QEAAGG@Z) Export(1245, ?sputbackc@?$basic_streambuf@_WU?$char_traits@_W@std@@@std@@QEAAG_W@Z) Export(1246, ?sputc@?$basic_streambuf@DU?$char_traits@D@std@@@std@@QEAAHD@Z) Export(1247, ?sputc@?$basic_streambuf@GU?$char_traits@G@std@@@std@@QEAAGG@Z) Export(1248, ?sputc@?$basic_streambuf@_WU?$char_traits@_W@std@@@std@@QEAAG_W@Z) Export(1249, ?sputn@?$basic_streambuf@DU?$char_traits@D@std@@@std@@QEAA_JPEBD_J@Z) 
Export(1250, ?sputn@?$basic_streambuf@GU?$char_traits@G@std@@@std@@QEAA_JPEBG_J@Z) Export(1251, ?sputn@?$basic_streambuf@_WU?$char_traits@_W@std@@@std@@QEAA_JPEB_W_J@Z) Export(1252, ?stossc@?$basic_streambuf@DU?$char_traits@D@std@@@std@@QEAAXXZ) Export(1253, ?stossc@?$basic_streambuf@GU?$char_traits@G@std@@@std@@QEAAXXZ) Export(1254, ?stossc@?$basic_streambuf@_WU?$char_traits@_W@std@@@std@@QEAAXXZ) Export(1255, ?sungetc@?$basic_streambuf@DU?$char_traits@D@std@@@std@@QEAAHXZ) Export(1256, ?sungetc@?$basic_streambuf@GU?$char_traits@G@std@@@std@@QEAAGXZ) Export(1257, ?sungetc@?$basic_streambuf@_WU?$char_traits@_W@std@@@std@@QEAAGXZ) Export(1258, ?swap@?$basic_ios@DU?$char_traits@D@std@@@std@@QEAAXAEAV12@@Z) Export(1259, ?swap@?$basic_ios@GU?$char_traits@G@std@@@std@@QEAAXAEAV12@@Z) Export(1260, ?swap@?$basic_ios@_WU?$char_traits@_W@std@@@std@@QEAAXAEAV12@@Z) Export(1261, ?swap@?$basic_iostream@DU?$char_traits@D@std@@@std@@IEAAXAEAV12@@Z) Export(1262, ?swap@?$basic_iostream@GU?$char_traits@G@std@@@std@@IEAAXAEAV12@@Z) Export(1263, ?swap@?$basic_iostream@_WU?$char_traits@_W@std@@@std@@IEAAXAEAV12@@Z) Export(1264, ?swap@?$basic_istream@DU?$char_traits@D@std@@@std@@IEAAXAEAV12@@Z) Export(1265, ?swap@?$basic_istream@GU?$char_traits@G@std@@@std@@IEAAXAEAV12@@Z) Export(1266, ?swap@?$basic_istream@_WU?$char_traits@_W@std@@@std@@IEAAXAEAV12@@Z) Export(1267, ?swap@?$basic_ostream@DU?$char_traits@D@std@@@std@@IEAAXAEAV12@@Z) Export(1268, ?swap@?$basic_ostream@GU?$char_traits@G@std@@@std@@IEAAXAEAV12@@Z) Export(1269, ?swap@?$basic_ostream@_WU?$char_traits@_W@std@@@std@@IEAAXAEAV12@@Z) Export(1270, ?swap@?$basic_streambuf@DU?$char_traits@D@std@@@std@@IEAAXAEAV12@@Z) Export(1271, ?swap@?$basic_streambuf@GU?$char_traits@G@std@@@std@@IEAAXAEAV12@@Z) Export(1272, ?swap@?$basic_streambuf@_WU?$char_traits@_W@std@@@std@@IEAAXAEAV12@@Z) Export(1273, ?swap@ios_base@std@@QEAAXAEAV12@@Z) Export(1274, ?sync@?$basic_istream@DU?$char_traits@D@std@@@std@@QEAAHXZ) Export(1275, ?sync@?$basic_istream@GU?$char_traits@G@std@@@std@@QEAAHXZ) Export(1276, ?sync@?$basic_istream@_WU?$char_traits@_W@std@@@std@@QEAAHXZ) Export(1277, ?sync@?$basic_streambuf@DU?$char_traits@D@std@@@std@@MEAAHXZ) Export(1278, ?sync@?$basic_streambuf@GU?$char_traits@G@std@@@std@@MEAAHXZ) Export(1279, ?sync@?$basic_streambuf@_WU?$char_traits@_W@std@@@std@@MEAAHXZ) Export(1280, ?sync_with_stdio@ios_base@std@@SA_N_N@Z) Export(1281, ?table@?$ctype@D@std@@QEBAPEBFXZ) Export(1282, ?table_size@?$ctype@D@std@@2_KB) Export(1283, ?tellg@?$basic_istream@DU?$char_traits@D@std@@@std@@QEAA?AV?$fpos@U_Mbstatet@@@2@XZ) Export(1284, ?tellg@?$basic_istream@GU?$char_traits@G@std@@@std@@QEAA?AV?$fpos@U_Mbstatet@@@2@XZ) Export(1285, ?tellg@?$basic_istream@_WU?$char_traits@_W@std@@@std@@QEAA?AV?$fpos@U_Mbstatet@@@2@XZ) Export(1286, ?tellp@?$basic_ostream@DU?$char_traits@D@std@@@std@@QEAA?AV?$fpos@U_Mbstatet@@@2@XZ) Export(1287, ?tellp@?$basic_ostream@GU?$char_traits@G@std@@@std@@QEAA?AV?$fpos@U_Mbstatet@@@2@XZ) Export(1288, ?tellp@?$basic_ostream@_WU?$char_traits@_W@std@@@std@@QEAA?AV?$fpos@U_Mbstatet@@@2@XZ) Export(1289, ?tie@?$basic_ios@DU?$char_traits@D@std@@@std@@QEAAPEAV?$basic_ostream@DU?$char_traits@D@std@@@2@PEAV32@@Z) Export(1290, ?tie@?$basic_ios@DU?$char_traits@D@std@@@std@@QEBAPEAV?$basic_ostream@DU?$char_traits@D@std@@@2@XZ) Export(1291, ?tie@?$basic_ios@GU?$char_traits@G@std@@@std@@QEAAPEAV?$basic_ostream@GU?$char_traits@G@std@@@2@PEAV32@@Z) Export(1292, ?tie@?$basic_ios@GU?$char_traits@G@std@@@std@@QEBAPEAV?$basic_ostream@GU?$char_traits@G@std@@@2@XZ) Export(1293, ?tie@?$basic_ios@_WU?$char_traits@_W@std@@@std@@QEAAPEAV?$basic_ostream@_WU?$char_traits@_W@std@@@2@PEAV32@@Z) Export(1294, ?tie@?$basic_ios@_WU?$char_traits@_W@std@@@std@@QEBAPEAV?$basic_ostream@_WU?$char_traits@_W@std@@@2@XZ) Export(1295, ?tolower@?$ctype@D@std@@QEBADD@Z) Export(1296, ?tolower@?$ctype@D@std@@QEBAPEBDPEADPEBD@Z) Export(1297, ?tolower@?$ctype@G@std@@QEBAGG@Z) Export(1298, ?tolower@?$ctype@G@std@@QEBAPEBGPEAGPEBG@Z) Export(1299, ?tolower@?$ctype@_W@std@@QEBAPEB_WPEA_WPEB_W@Z) 
Export(1300, ?tolower@?$ctype@_W@std@@QEBA_W_W@Z) Export(1301, ?toupper@?$ctype@D@std@@QEBADD@Z) Export(1302, ?toupper@?$ctype@D@std@@QEBAPEBDPEADPEBD@Z) Export(1303, ?toupper@?$ctype@G@std@@QEBAGG@Z) Export(1304, ?toupper@?$ctype@G@std@@QEBAPEBGPEAGPEBG@Z) Export(1305, ?toupper@?$ctype@_W@std@@QEBAPEB_WPEA_WPEB_W@Z) Export(1306, ?toupper@?$ctype@_W@std@@QEBA_W_W@Z) Export(1307, ?uflow@?$basic_streambuf@DU?$char_traits@D@std@@@std@@MEAAHXZ) Export(1308, ?uflow@?$basic_streambuf@GU?$char_traits@G@std@@@std@@MEAAGXZ) Export(1309, ?uflow@?$basic_streambuf@_WU?$char_traits@_W@std@@@std@@MEAAGXZ) Export(1310, ?uncaught_exception@std@@YA_NXZ) Export(1311, ?uncaught_exceptions@std@@YAHXZ) Export(1312, ?underflow@?$basic_streambuf@DU?$char_traits@D@std@@@std@@MEAAHXZ) Export(1313, ?underflow@?$basic_streambuf@GU?$char_traits@G@std@@@std@@MEAAGXZ) Export(1314, ?underflow@?$basic_streambuf@_WU?$char_traits@_W@std@@@std@@MEAAGXZ) Export(1315, ?unget@?$basic_istream@DU?$char_traits@D@std@@@std@@QEAAAEAV12@XZ) Export(1316, ?unget@?$basic_istream@GU?$char_traits@G@std@@@std@@QEAAAEAV12@XZ) Export(1317, ?unget@?$basic_istream@_WU?$char_traits@_W@std@@@std@@QEAAAEAV12@XZ) Export(1318, ?unsetf@ios_base@std@@QEAAXH@Z) Export(1319, ?unshift@?$codecvt@DDU_Mbstatet@@@std@@QEBAHAEAU_Mbstatet@@PEAD1AEAPEAD@Z) Export(1320, ?unshift@?$codecvt@GDU_Mbstatet@@@std@@QEBAHAEAU_Mbstatet@@PEAD1AEAPEAD@Z) Export(1321, ?unshift@?$codecvt@_SDU_Mbstatet@@@std@@QEBAHAEAU_Mbstatet@@PEAD1AEAPEAD@Z) Export(1322, ?unshift@?$codecvt@_UDU_Mbstatet@@@std@@QEBAHAEAU_Mbstatet@@PEAD1AEAPEAD@Z) Export(1323, ?unshift@?$codecvt@_WDU_Mbstatet@@@std@@QEBAHAEAU_Mbstatet@@PEAD1AEAPEAD@Z) Export(1324, ?wcerr@std@@3V?$basic_ostream@GU?$char_traits@G@std@@@1@A) Export(1325, ?wcerr@std@@3V?$basic_ostream@_WU?$char_traits@_W@std@@@1@A) Export(1326, ?wcin@std@@3V?$basic_istream@GU?$char_traits@G@std@@@1@A) Export(1327, ?wcin@std@@3V?$basic_istream@_WU?$char_traits@_W@std@@@1@A) Export(1328, ?wclog@std@@3V?$basic_ostream@GU?$char_traits@G@std@@@1@A) Export(1329, ?wclog@std@@3V?$basic_ostream@_WU?$char_traits@_W@std@@@1@A) Export(1330, ?wcout@std@@3V?$basic_ostream@GU?$char_traits@G@std@@@1@A) Export(1331, ?wcout@std@@3V?$basic_ostream@_WU?$char_traits@_W@std@@@1@A) Export(1332, ?widen@?$basic_ios@DU?$char_traits@D@std@@@std@@QEBADD@Z) Export(1333, ?widen@?$basic_ios@GU?$char_traits@G@std@@@std@@QEBAGD@Z) Export(1334, ?widen@?$basic_ios@_WU?$char_traits@_W@std@@@std@@QEBA_WD@Z) Export(1335, ?widen@?$ctype@D@std@@QEBADD@Z) Export(1336, ?widen@?$ctype@D@std@@QEBAPEBDPEBD0PEAD@Z) Export(1337, ?widen@?$ctype@G@std@@QEBAGD@Z) Export(1338, ?widen@?$ctype@G@std@@QEBAPEBDPEBD0PEAG@Z) Export(1339, ?widen@?$ctype@_W@std@@QEBAPEBDPEBD0PEA_W@Z) Export(1340, ?widen@?$ctype@_W@std@@QEBA_WD@Z) Export(1341, ?width@ios_base@std@@QEAA_J_J@Z) Export(1342, ?width@ios_base@std@@QEBA_JXZ) Export(1343, ?write@?$basic_ostream@DU?$char_traits@D@std@@@std@@QEAAAEAV12@PEBD_J@Z) Export(1344, ?write@?$basic_ostream@GU?$char_traits@G@std@@@std@@QEAAAEAV12@PEBG_J@Z) Export(1345, ?write@?$basic_ostream@_WU?$char_traits@_W@std@@@std@@QEAAAEAV12@PEB_W_J@Z) Export(1346, ?xalloc@ios_base@std@@SAHXZ) Export(1347, ?xsgetn@?$basic_streambuf@DU?$char_traits@D@std@@@std@@MEAA_JPEAD_J@Z) Export(1348, ?xsgetn@?$basic_streambuf@GU?$char_traits@G@std@@@std@@MEAA_JPEAG_J@Z) Export(1349, ?xsgetn@?$basic_streambuf@_WU?$char_traits@_W@std@@@std@@MEAA_JPEA_W_J@Z) 
Export(1350, ?xsputn@?$basic_streambuf@DU?$char_traits@D@std@@@std@@MEAA_JPEBD_J@Z) Export(1351, ?xsputn@?$basic_streambuf@GU?$char_traits@G@std@@@std@@MEAA_JPEBG_J@Z) Export(1352, ?xsputn@?$basic_streambuf@_WU?$char_traits@_W@std@@@std@@MEAA_JPEB_W_J@Z) Export(1353, _Chmod) Export(1354, _Close_dir) Export(1355, _Cnd_broadcast) Export(1356, _Cnd_destroy) Export(1357, _Cnd_destroy_in_situ) Export(1358, _Cnd_do_broadcast_at_thread_exit) Export(1359, _Cnd_init) Export(1360, _Cnd_init_in_situ) Export(1361, _Cnd_register_at_thread_exit) Export(1362, _Cnd_signal) Export(1363, _Cnd_timedwait) Export(1364, _Cnd_unregister_at_thread_exit) Export(1365, _Cnd_wait) Export(1366, _Copy_file) Export(1367, _Cosh) Export(1368, _Current_get) Export(1369, _Current_set) Export(1370, _Denorm) Export(1371, _Dtest) Export(1372, _Equivalent) Export(1373, _Exp) Export(1374, _FCosh) Export(1375, _FDenorm) Export(1376, _FDtest) Export(1377, _FExp) Export(1378, _FInf) Export(1379, _FNan) Export(1380, _FSinh) Export(1381, _FSnan) Export(1382, _File_size) Export(1383, _Getcoll) Export(1384, _Getctype) Export(1385, _Getcvt) Export(1386, _Getdateorder) Export(1387, _Getwctype) Export(1388, _Getwctypes) Export(1389, _Hard_links) Export(1390, _Hugeval) Export(1391, _Inf) Export(1392, _LCosh) Export(1393, _LDenorm) Export(1394, _LDtest) Export(1395, _LExp) Export(1396, _LInf) Export(1397, _LNan) Export(1398, _LSinh) Export(1399, _LSnan) 
Export(1400, _Last_write_time) Export(1401, _Link) Export(1402, _Lock_shared_ptr_spin_lock) Export(1403, _Lstat) Export(1404, _Make_dir) Export(1405, _Mbrtowc) Export(1406, _Mtx_clear_owner) Export(1407, _Mtx_current_owns) Export(1408, _Mtx_destroy) Export(1409, _Mtx_destroy_in_situ) Export(1410, _Mtx_getconcrtcs) Export(1411, _Mtx_init) Export(1412, _Mtx_init_in_situ) Export(1413, _Mtx_lock) Export(1414, _Mtx_reset_owner) Export(1415, _Mtx_timedlock) Export(1416, _Mtx_trylock) Export(1417, _Mtx_unlock) Export(1418, _Mtxdst) Export(1419, _Mtxinit) Export(1420, _Mtxlock) Export(1421, _Mtxunlock) Export(1422, _Nan) Export(1423, _Open_dir) Export(1424, _Query_perf_counter) Export(1425, _Query_perf_frequency) Export(1426, _Read_dir) Export(1427, _Remove_dir) Export(1428, _Rename) Export(1429, _Resize) Export(1430, _Set_last_write_time) Export(1431, _Sinh) Export(1432, _Snan) Export(1433, _Stat) Export(1434, _Statvfs) Export(1435, _Stod) Export(1436, _Stodx) Export(1437, _Stof) Export(1438, _Stofx) Export(1439, _Stold) Export(1440, _Stoldx) Export(1441, _Stoll) Export(1442, _Stollx) Export(1443, _Stolx) Export(1444, _Stoul) Export(1445, _Stoull) Export(1446, _Stoullx) Export(1447, _Stoulx) Export(1448, _Strcoll) Export(1449, _Strxfrm) 
Export(1450, _Symlink) Export(1451, _Symlink_get) Export(1452, _Temp_get) Export(1453, _Thrd_abort) Export(1454, _Thrd_create) Export(1455, _Thrd_current) Export(1456, _Thrd_detach) Export(1457, _Thrd_equal) Export(1458, _Thrd_exit) Export(1459, _Thrd_hardware_concurrency) Export(1460, _Thrd_id) Export(1461, _Thrd_join) Export(1462, _Thrd_sleep) Export(1463, _Thrd_start) Export(1464, _Thrd_yield) Export(1465, _To_byte) Export(1466, _To_wide) Export(1467, _Tolower) Export(1468, _Toupper) Export(1469, _Towlower) Export(1470, _Towupper) Export(1471, _Unlink) Export(1472, _Unlock_shared_ptr_spin_lock) Export(1473, _WStod) Export(1474, _WStodx) Export(1475, _WStof) Export(1476, _WStofx) Export(1477, _WStold) Export(1478, _WStoldx) Export(1479, _Wcrtomb) Export(1480, _Wcscoll) Export(1481, _Wcsxfrm) Export(1482, _Xtime_diff_to_millis) Export(1483, _Xtime_diff_to_millis2) Export(1484, _Xtime_get_ticks) Export(1485, __Wcrtomb_lk) Export(1486, __crtCloseThreadpoolTimer) Export(1487, __crtCloseThreadpoolWait) Export(1488, __crtCompareStringA) Export(1489, __crtCompareStringEx) Export(1490, __crtCompareStringW) Export(1491, __crtCreateEventExW) Export(1492, __crtCreateSemaphoreExW) Export(1493, __crtCreateSymbolicLinkW) Export(1494, __crtCreateThreadpoolTimer) Export(1495, __crtCreateThreadpoolWait) Export(1496, __crtFlushProcessWriteBuffers) Export(1497, __crtFreeLibraryWhenCallbackReturns) Export(1498, __crtGetCurrentProcessorNumber) Export(1499, __crtGetFileInformationByHandleEx) 
Export(1500, __crtGetLocaleInfoEx) Export(1501, __crtGetSystemTimePreciseAsFileTime) Export(1502, __crtGetTickCount64) Export(1503, __crtInitOnceExecuteOnce) Export(1504, __crtInitializeCriticalSectionEx) Export(1505, __crtIsPackagedApp) Export(1506, __crtLCMapStringA) Export(1507, __crtLCMapStringEx) Export(1508, __crtLCMapStringW) Export(1509, __crtSetFileInformationByHandle) Export(1510, __crtSetThreadpoolTimer) Export(1511, __crtSetThreadpoolWait) Export(1512, __crtWaitForThreadpoolTimerCallbacks) Export(1513, __set_stl_sync_api_mode) Export(1514, xtime_get) 